

   1               	        .data
   2               	        .align 2
   3               	environ:
   4 0000 0000 0000 	        .long 0
   5               	 	.align	2
   6               	
   7               	.extern main
   8               	.extern exit
   9               	.extern monitor_begin
  10               	.extern hardware_init_hook
  11               	.extern software_init_hook
  12               	.extern atexit
  13               	.extern __do_global_dtors
  14               	.extern __bss_start
  15               	.extern _end
  16               	
  17               	.global start
  18               	
  19               	.text
  20               	.even
  21               		/* See if user supplied their own stack (__stack != 0).  If not, then
  22               		 * default to using the value of %sp as set by the ROM monitor.
  23               		 */
  24 0000 207C 0000 		movel	#__stack, %a0
  24      0000 
  25 0006 B1FC 0000 		cmpl	#0, %a0
  25      0000 
  26 000c 6702      		jbeq    1f
  27 000e 2E48      		movel	%a0, %sp
  28               	1:
  29               		/* set up initial stack frame */
  30 0010 4E56 FFF8 		link	%a6, #-8
  31               	
  32               		/* zero out the bss section */
  33 0014 223C 0000 		movel	#__bss_start, %d1
  33      0000 
  34 001a 203C 0000 		movel	#_end, %d0
  34      0000 
  35 0020 B280      		cmpl	%d0, %d1
  36 0022 6712      		jbeq	3f
  37 0024 2041      		movl	%d1, %a0
  38 0026 9081      		subl	%d1, %d0
  39 0028 5380      		subql	#1, %d0
  40               	2:
  41 002a 4218      		clrb	(%a0)+
  42 002c 51C8 FFFC 		dbra	%d0, 2b
  43 0030 4240      		clrw	%d0
  44 0032 5380      		subql	#1, %d0
  45 0034 64F4      		jbcc	2b
  46               	3:
  47               		/* jmp monitor initialize after making up  bss */
  48 0036 4EF9 0000 		jmp	monitor_begin
  48      0000 
  49               	start:
  50               		/* monitor returns here.
  51               		 * re-setup stack for C programs.
  52               	         * See if user supplied their own stack (__stack != 0).  If not, then


  53               		 * default to using the value of %sp as set by the ROM monitor.
  54               		 */
  55 003c 207C 0000 		movel	#__stack, %a0
  55      0000 
  56 0042 B1FC 0000 		cmpl	#0, %a0
  56      0000 
  57 0048 6702      		jbeq    skip
  58 004a 2E48      		movel	%a0, %sp
  59               	skip:
  60               		/* set up initial stack frame */
  61 004c 4E56 FFF8 		link	%a6, #-8
  62               	
  63               		/*
  64               		 * initialize target specific stuff. Only execute these
  65               		 * functions it they exist.
  66               		 */
  67 0050 41F9 0000 		lea	hardware_init_hook, %a0
  67      0000 
  68 0056 B1FC 0000 		cmpl	#0, %a0
  68      0000 
  69 005c 6702      		jbeq	4f
  70 005e 4E90      		jsr     (%a0)
  71               	4:
  72 0060 41F9 0000 		lea	software_init_hook, %a0
  72      0000 
  73 0066 B1FC 0000 		cmpl	#0, %a0
  73      0000 
  74 006c 6702      		jbeq	5f
  75 006e 4E90      		jsr     (%a0)
  76               	5:
  77               	
  78               		/*
  79               		 * call the main routine from the application to get it going.
  80               		 * main (argc, argv, environ)
  81               		 * we pass argv as a pointer to NULL.
  82               		 */
  83               	
  84               		/* put __do_global_dtors in the atexit list so 
  85               		 * the destructors get run */
  86               	/* 
  87               		movel	#__do_global_dtors,(%sp)
  88               		jsr	atexit
  89               		movel	#__FINI_SECTION__,(%sp)
  90               		jsr	atexit
  91               		jsr	__INIT_SECTION__
  92               	*/
  93               		
  94               		** setup argv, argc and jump into main
  95 0070 4878 0000 	        pea     0
  96 0074 4879 0000 	        pea     environ
  96      0000 
  97 007a 486F 0004 	        pea     %sp@(4)
  98 007e 4878 0000 	        pea     0
  99 0082 4EB9 0000 		jsr	main
  99      0000 
 100 0088 2F00      		movel	%d0, %sp@-
 101               	


 102 008a 4EB9 0000 	        jsr     exit
 102      0000 
 103               	.even




   1               	***************************************************************
   2               	**各種レジスタ定義
   3               	***************************************************************
   4               	***************
   5               	**レジスタ群の先頭
   6               	***************
   7               	.equ REGBASE,   0xFFF000          | DMAPを使用．
   8               	.equ IOBASE,    0x00d00000
   9               	***************
  10               	**割り込み関係のレジスタ
  11               	***************
  12               	.equ IVR,       REGBASE+0x300     |割り込みベクタレジスタ
  13               	.equ IMR,       REGBASE+0x304     |割り込みマスクレジスタ
  14               	.equ ISR,       REGBASE+0x30c     |割り込みステータスレジスタ
  15               	.equ IPR,       REGBASE+0x310     |割り込みペンディングレジスタ
  16               	***************
  17               	**タイマ関係のレジスタ
  18               	***************
  19               	.equ TCTL1,     REGBASE+0x600     |タイマ１コントロールレジスタ
  20               	.equ TPRER1,    REGBASE+0x602     |タイマ１プリスケーラレジスタ
  21               	.equ TCMP1,     REGBASE+0x604     |タイマ１コンペアレジスタ
  22               	.equ TCN1,      REGBASE+0x608     |タイマ１カウンタレジスタ
  23               	.equ TSTAT1,    REGBASE+0x60a     |タイマ１ステータスレジスタ
  24               	***************
  25               	** UART1（送受信）関係のレジスタ
  26               	***************
  27               	.equ USTCNT1,   REGBASE+0x900     | UART1ステータス/コントロールレジスタ
  28               	.equ UBAUD1,    REGBASE+0x902     | UART1ボーコントロールレジスタ
  29               	.equ URX1,      REGBASE+0x904     | UART1受信レジスタ
  30               	.equ UTX1,      REGBASE+0x906     | UART1送信レジスタ
  31               	***************
  32               	** LED
  33               	***************
  34               	.equ LED7,      IOBASE+0x000002f  |ボード搭載のLED用レジスタ
  35               	.equ LED6,      IOBASE+0x000002d  |使用法については付録A.4.3.1
  36               	.equ LED5,      IOBASE+0x000002b
  37               	.equ LED4,      IOBASE+0x0000029
  38               	.equ LED3,      IOBASE+0x000003f
  39               	.equ LED2,      IOBASE+0x000003d
  40               	.equ LED1,      IOBASE+0x000003b
  41               	.equ LED0,      IOBASE+0x0000039
  42               	
  43               	*************************
  44               	**システムコール番号
  45               	*************************
  46               	.equ SYSCALL_NUM_GETSTRING,    1
  47               	.equ SYSCALL_NUM_PUTSTRING,    2
  48               	.equ SYSCALL_NUM_RESET_TIMER,  3
  49               	.equ SYSCALL_NUM_SET_TIMER,    4
  50               	.equ SYSCALL_NUM_SKIPMT,       5
  51               		
  52               	***************************************************************
  53               	**スタック領域の確保
  54               	***************************************************************
  55               	.section .bss
  56               	.even
  57               	SYS_STK:


  58 0000 0000 0000 		.ds.b   0x4000  |システムスタック領域
  58      0000 0000 
  58      0000 0000 
  58      0000 0000 
  58      0000 0000 
  59               		.even
  60               	SYS_STK_TOP:            |システムスタック領域の最後尾
  61               	
  62               	task_p:
  63 4000 0000 0000 		.ds.l 1		|SET_TIMERで登録されるタスクポインタ
  64               	
  65               	***************************************************************
  66               	**初期化 作成者:鵜飼, 平川, 松下 レビュー:平野, 札場
  67               	***************************************************************
  68               	.section .text
  69               		.even
  70               		.global monitor_begin
  71               		.extern start
  72               	monitor_begin:	
  73               	boot:
  74               		*スーパーバイザ&各種設定を行っている最中の割込禁止
  75 0000 46FC 2700 		move.w #0x2700,%SR
  76 0004 4FF9 0000 		lea.l  SYS_STK_TOP, %SP | Set SSP
  76      0000 
  77               	
  78               		****************
  79               		**割り込みコントローラの初期化
  80               		****************
  81 000a 13FC 0040 		move.b #0x40, IVR       |ユーザ割り込みベクタ番号を
  81      00FF F300 
  82               					| 0x40+levelに設定.
  83 0012 23FC 00FF 		move.l #0x00ffffff, IMR |全割り込みマスク|
  83      FFFF 00FF 
  83      F304 
  84               	
  85               		****************
  86               		**送受信(UART1)関係の初期化(割り込みレベルは4に固定されている)
  87               		****************
  88 001c 33FC 0000 		move.w #0x0000, USTCNT1 |リセット
  88      00FF F900 
  89 0024 33FC E10C 		move.w #0xe10c, USTCNT1 |送受信可能,パリティなし, 1 stop, 8 bit,
  89      00FF F900 
  90               					|送受信割り込み禁止
  91 002c 33FC 0038 		move.w #0x0038, UBAUD1  | baud rate = 230400 bps
  91      00FF F902 
  92               	
  93               		****************
  94               		**タイマ関係の初期化(割り込みレベルは6に固定されている)
  95               		*****************
  96 0034 33FC 0004 		move.w #0x0004, TCTL1   | restart,割り込み不可,
  96      00FF F600 
  97               					|システムクロックの1/16を単位として計時，
  98               					|タイマ使用停止
  99               	
 100               		***************
 101               		**キュー関係の初期化
 102               		***************


 103 003c 4EBA 028E 		jsr Q_INIT
 104               	
 105               		***************
 106               		**割り込みベクタの設定
 107               		***************
 108 0040 21FC 0000 		move.l #check_send_interrupt,       0x110 /* level 4, (64+4)*4 */
 108      0000 0110 
 109 0048 21FC 0000 		move.l #check_timer_interrupt,0x118 /* level 6, (64+6)*4 */
 109      0000 0118 
 110 0050 21FC 0000 		move.l #systemcall_if,        0x080 /* trap #0 */
 110      0000 0080 
 111               	
 112 0058 23FC 00FF 		move.l #0x00ff3ff9, IMR       |送受信(UART1)とタイマのマスク解除|
 112      3FF9 00FF 
 112      F304 
 113               		**move.w #0x0000, %SR | USER MODE, LEVEL 0
 114               	
 115 0062 4EF9 0000 		jmp start
 115      0000 
 116               		
 117               	
 118               	
 119               	
 120               	****************************************************************
 121               	*** プログラム領域 
 122               	****************************************************************
 123               	.section .text
 124               	.even
 125               	MAIN:
 126               	** 走行モードとレベルの設定 (「ユーザモード」への移行処理)
 127 0068 46FC 0000 	move.w #0x0000, %SR | USER MODE, LEVEL 0
 128 006c 4FF9 0000 	lea.l USR_STK_TOP,%SP | user stack の設定
 128      0000 
 129               	** システムコールによる RESET_TIMER の起動
 130 0072 7003      	move.l #SYSCALL_NUM_RESET_TIMER,%D0
 131 0074 4E40      	trap #0
 132               	** システムコールによる SET_TIMER の起動
 133 0076 7004      	move.l #SYSCALL_NUM_SET_TIMER, %D0
 134 0078 323C C350 	move.w #50000, %D1
 135 007c 243C 0000 	move.l #TT, %D2
 135      0000 
 136 0082 4E40      	trap #0
 137               	******************************
 138               	* sys_GETSTRING, sys_PUTSTRING のテスト
 139               	* ターミナルの入力をエコーバックする 
 140               	******************************
 141               	LOOP:
 142 0084 7001      	move.l #SYSCALL_NUM_GETSTRING, %D0
 143 0086 7200      	move.l #0, %D1 | ch = 0
 144 0088 243C 0000 	move.l #BUF, %D2 | p = #BUF
 144      0000 
 145 008e 263C 0000 	move.l #256, %D3 | size = 256
 145      0100 
 146 0094 4E40      	trap #0
 147 0096 2600      	move.l %D0, %D3 | size = %D0 (length of given string)
 148 0098 7002      	move.l #SYSCALL_NUM_PUTSTRING, %D0
 149 009a 7200      	move.l #0, %D1 | ch = 0


 150 009c 243C 0000 	move.l #BUF,%D2 | p = #BUF
 150      0000 
 151 00a2 4E40      	trap #0
 152 00a4 6000 FFDE 	bra LOOP
 153               	******************************
 154               	* タイマのテスト
 155               	* ’******’ を表示し改行する． * ５回実行すると，RESET_TIMER をする． 
 156               	******************************
 157               	TT:
 158 00a8 48E7 FFFE 	movem.l %D0-%D7/%A0-%A6,-(%SP)
 159 00ac 0C79 0005 	cmpi.w #5,TTC | TTC カウンタで 5 回実行したかどうか数える
 159      0000 0000 
 160 00b4 6700 001C 	beq TTKILL | 5 回実行したら，タイマを止める
 161 00b8 7002      	move.l #SYSCALL_NUM_PUTSTRING,%D0
 162 00ba 7200      	move.l #0, %D1 | ch = 0
 163 00bc 243C 0000 	move.l #TMSG, %D2 | p = #TMSG
 163      0000 
 164 00c2 7608      	move.l #8, %D3 | size = 8
 165 00c4 4E40      	trap #0
 166 00c6 0679 0001 	addi.w #1,TTC | TTC カウンタを 1 つ増やして
 166      0000 0000 
 167 00ce 6000 0006 	bra TTEND | そのまま戻る
 168               	TTKILL:
 169 00d2 7003      	move.l #SYSCALL_NUM_RESET_TIMER,%D0
 170 00d4 4E40      	trap #0
 171               	TTEND:
 172 00d6 4CDF 7FFF 	movem.l (%SP)+,%D0-%D7/%A0-%A6
 173 00da 4E75      	rts
 174               	****************************************************************
 175               	*** 初期値のあるデータ領域 
 176               	****************************************************************
 177               	.section .data
 178               	TMSG:
 179 0000 2A2A 2A2A 	.ascii "******\r\n" | \r: 行頭へ (キャリッジリターン)
 179      2A2A 0D0A 
 180               	.even | \n: 次の行へ (ラインフィード)
 181               	TTC:
 182 0008 0000      	.dc.w 0
 183               	.even
 184               	****************************************************************
 185               	*** 初期値の無いデータ領域 
 186               	****************************************************************
 187               	.section .bss
 188               	BUF:
 189 4004 0000 0000 	.ds.b 256 | BUF[256]
 189      0000 0000 
 189      0000 0000 
 189      0000 0000 
 189      0000 0000 
 190               	.even
 191               	USR_STK:
 192 4104 0000 0000 	.ds.b 0x4000 | ユーザスタック領域 .even
 192      0000 0000 
 192      0000 0000 
 192      0000 0000 
 192      0000 0000 
 193               	USR_STK_TOP: | ユーザスタック領域の最後尾


 194               	
 195               	**********************************************************
 196               	**送受信割り込み用のHW割り込みインターフェース 作成者:鵜飼 レビュー:
 197               	**********************************************************
 198               	.section .text
 199               	.even
 200               	check_send_interrupt:					| UART1割り込みハンドラの入口
 201 00dc 48E7 F0C0 		movem.l	%d0-%d3/%a0-%a1,-(%SP) 	| 使用レジスタをスタックへ退避
 202               	
 203 00e0 3039 00FF 		move.w 	UTX1, %d0			| 送信ステータスを取得
 203      F906 
 204 00e6 0280 0000 		andi.l	#0x00008000, %d0		| 送信完了フラグのみを抽出
 204      8000 
 205 00ec 0C80 0000 		cmpi.l	#0x00008000, %d0		| 送信完了かを判定
 205      8000 
 206 00f2 6600 0008 		bne	check_receive_interrupt		| 送信完了でなければ受信処理へ
 207               	
 208 00f6 7200      		moveq	#0, %d1			| チャネル0を指定
 209 00f8 4EBA 0026 		jsr	INTERPUT			| 送信割り込み処理へ
 210               	
 211               	check_receive_interrupt:				| 受信割り込みのチェック
 212 00fc 3639 00FF 		move.w URX1, %d3			| 受信ステータスとデータを取得
 212      F904 
 213 0102 1403      		move.b %d3, %d2			| 受信データ本体を抽出
 214 0104 0283 0000 		andi.l #0x00002000, %d3		| 受信完了フラグのみを抽出
 214      2000 
 215 010a 0C83 0000 		cmpi.l #0x00002000, %d3		| 受信完了かを判定
 215      2000 
 216 0110 6600 0008 		bne	finish_check_interrupt		| 受信完了でなければ終了
 217               	
 218 0114 7200      		moveq	#0, %d1			| チャネル0を指定
 219 0116 4EBA 00D8 		jsr	INTERGET			| 受信割り込み処理へ
 220               	
 221               	finish_check_interrupt:				| 割り込み処理終了
 222 011a 4CDF 030F 		movem.l	(%SP)+, %d0-%d3/%a0-%a1	| 退避していたレジスタを復帰
 223 011e 4E73      		rte 					| 割り込みから復帰
 224               	
 225               	**********************************************************
 226               	**INTERPUT 作成者:札場 レビュー:平野
 227               	**********************************************************
 228               	INTERPUT:					| 送信割り込み処理本体
 229 0120 40E7      		move.w %SR,-(%sp)			| ステータスレジスタを退避
 230 0122 48E7 C000 		movem.l %d0-%d1,-(%sp)			| 使用するデータレジスタを退避
 231 0126 46FC 2700 		move.w #0x2700,%SR			| 割り込みを禁止
 232               	
 233 012a 0C81 0000 		cmpi.l #0,%d1				| サポートしているチャネルか判定
 233      0000 
 234 0130 6600 002E 		bne END_INTERPUT			| 0以外なら何もせず終了
 235               	
 236 0134 7001      		moveq	#1,%d0				| 送信用キュー番号1を指定
 237 0136 4EBA 0244 		jsr OUTQ				| キューから1バイト取得
 238 013a 0C80 0000 		cmpi.l #0,%d0				| 取得成功か判定
 238      0000 
 239 0140 6700 0016 		beq FAIL_INTERPUT			| 失敗ならUART制御レジスタをリセット
 240               	
 241 0144 0281 0000 		andi.l #0x000000ff,%d1			| 送信データを1バイトに制限
 241      00FF 


 242 014a 0641 0800 		addi.w #0x0800,%d1			| 送信フラグを付与
 243 014e 33C1 00FF 		move.w %d1,UTX1				| UARTへデータ書き込み
 243      F906 
 244 0154 6000 000A 		bra END_INTERPUT			| 正常終了へ
 245               	
 246               	FAIL_INTERPUT:					| キューが空だった場合
 247 0158 33FC E108 		move.w #0xE108,USTCNT1			| 送信割り込みを停止
 247      00FF F900 
 248               	
 249               	END_INTERPUT:					| 後始末
 250 0160 4CDF 0003 		movem.l (%sp)+,%d0-%d1			| データレジスタを復帰
 251 0164 46DF      		move.w (%sp)+,%SR			| ステータスレジスタを復帰
 252 0166 4E75      		rts					| 送信割り込み処理終了
 253               	
 254               	**********************************************************
 255               	**PUTSTRING 作成者:札場 レビュー:平野
 256               	**********************************************************
 257               	PUTSTRING:					| 文字列送信用システムコール本体
 258 0168 48E7 78C0 		movem.l %d1-%d4/%a0-%a1,-(%SP)	| 使用レジスタを退避
 259 016c 0C81 0000 		cmpi.l #0,%d1				| チャネル番号を確認
 259      0000 
 260 0172 6600 003E 		bne END_PUTSTRING			| サポート外なら何もせず戻る
 261               	
 262 0176 7800      		moveq	#0,%d4				| 送信済みバイト数を初期化
 263 0178 2242      		movea.l %d2,%a1			| 送信元アドレスをセット
 264               	
 265 017a 0C83 0000 		cmpi.l #0,%d3				| 送信サイズが0か確認
 265      0000 
 266 0180 6700 002E 		beq	SEND_SZ				| 0なら即座に戻り値だけ返す
 267               	
 268               	loop_put_string:					| 送信キューへ書き込むループ
 269 0184 B883      		cmp.l %d3,%d4				| 送信済みが目標サイズに達したか
 270 0186 6700 0020 		beq ALLOW_SEND				| 全て書けたら送信許可へ
 271               	
 272 018a 7001      		moveq #1,%d0				| 送信用キュー番号1
 273 018c 1211      		move.b (%a1),%d1			| バッファから1バイト読み出し
 274 018e 4EBA 0184 		jsr INQ					| キューへ格納
 275 0192 0C80 0000 		cmpi.l #0,%d0				| 書き込み成功したか確認
 275      0000 
 276 0198 6700 000E 		beq ALLOW_SEND				| 失敗したらUART送信を開始させる
 277               	
 278 019c 5284      		addq.l #1,%d4				| カウンタをインクリメント
 279 019e D3FC 0000 		adda.l #1,%a1				| 次の文字へポインタ更新
 279      0001 
 280 01a4 6000 FFDE 		bra loop_put_string			| 引き続きキューへ投入
 281               	
 282               	ALLOW_SEND:					| UART送信を許可
 283 01a8 33FC E10C 		move.w #0xE10C,USTCNT1			| 送信割り込みを有効化
 283      00FF F900 
 284               	
 285               	SEND_SZ:					| 戻り値準備
 286 01b0 2004      		move.l %d4,%d0				| 実際にキューへ送れたサイズを返す
 287               	
 288               	END_PUTSTRING:
 289 01b2 4CDF 031E 		movem.l (%SP)+,%d1-%d4/%a0-%a1	| レジスタ復帰
 290 01b6 4E75      		rts					| システムコール復帰
 291               	


 292               	**********************************************************
 293               	**GETSTRING 作成者:平野 レビュー:札場
 294               	**********************************************************
 295               	GETSTRING:
 296               		/* 入力：チャネル d1、コピー先アドレス d2、個数 d3 */
 297               		/* 出力：取り出したデータ個数 d0*/
 298               	
 299 01b8 48E7 0FFE 		movem.l	%d4-%d7/%a0-%a6, -(%sp)	| 作業レジスタとアドレスレジスタを退避
 300 01bc 0C81 0000 		cmpi.l	#0, %d1			| 対応チャネルか確認
 300      0000 
 301 01c2 6600 0024 		bne	finish_get_string		| 0以外なら何もせず終了
 302               	
 303 01c6 7800      		moveq	#0, %d4			| 受信済みサイズを初期化
 304 01c8 2242      		movea.l	%d2, %a1			| コピー先ポインタを設定
 305               		
 306               	loop_get_string:					| 受信データ取り出しループ
 307 01ca B883      		cmp.l	%d3,%d4			| 指定サイズに達したか確認
 308 01cc 6700 001A 		beq	finish_get_string		| 目標まで受信済みなら終了	
 309               	
 310 01d0 7000      		moveq	#0, %d0			| 受信用キュー番号0
 311 01d2 4EBA 01A8 		jsr	OUTQ 				| キューから1バイト取り出す
 312               	
 313 01d6 0C80 0000 		cmpi.l	#0, %d0			| 取り出し成功したか判定
 313      0000 
 314 01dc 6700 000A 		beq	finish_get_string		| 失敗ならそのまま終了	
 315               	
 316 01e0 12C1      		move.b	%d1, (%a1)+			| 取得したデータをバッファへ格納
 317               		
 318 01e2 5284      		addq.l	#1, %d4			| 受信済みサイズを更新
 319 01e4 6000 FFE4 		bra	loop_get_string		| 必要な数だけ繰り返す
 320               		
 321               	finish_get_string:				| 受信処理終了
 322 01e8 2004      		move.l	%d4, %d0 			| 実際に受け取れたサイズを返す
 323 01ea 4CDF 7FF0 		movem.l	(%sp)+, %d4-%d7/%a0-%a6	| 退避していたレジスタを復帰
 324 01ee 4E75      		rts					| システムコール復帰
 325               	
 326               	**********************************************************
 327               	**INTERGET 作成者:平野 レビュー:札場
 328               	**********************************************************
 329               	INTERGET:					| 受信割り込み処理本体
 330 01f0 48E7 E0C0 		movem.l	%d0-%d2/%a0-%a1, -(%sp)	| 使用レジスタを退避
 331               	
 332 01f4 0C81 0000 		cmpi.l	#0, %d1			| チャネルが0か確認
 332      0000 
 333 01fa 6600 000A 		bne	finish_inter_get		| 0以外なら処理不要
 334 01fe 7000      		moveq	#0, %d0			| 受信用キュー番号0
 335 0200 1202      		move.b	%d2, %d1			| 受信データをd1へ
 336 0202 4EBA 0110 		jsr	INQ				| キューへデータを格納
 337               	
 338               	finish_inter_get:
 339 0206 4CDF 0307 		movem.l	(%sp)+, %d0-%d2/%a0-%a1	| レジスタを復帰	
 340 020a 4E75      		rts					| 受信割り込み処理終了
 341               	
 342               	********************************************************************
 343               	**タイマ割り込みに関するハードウェア割り込みインターフェース 作成者
 344               	********************************************************************
 345               	check_timer_interrupt:				| タイマ割り込みハンドラ入口


 346 020c 48E7 8080 		movem.l %d0/%a0, -(%SP)		| 使用レジスタを退避
 347               	
 348 0210 3039 00FF 		move.w TSTAT1, %d0			| タイマステータスを読み出し
 348      F60A 
 349 0216 0280 0000 		andi.l #0x00000001, %d0		| 割り込み発生ビットのみ抽出
 349      0001 
 350 021c 6700 000E 		beq finish_timer_interrupt		| 発生していなければ終了
 351               	
 352 0220 33FC 0000 		move.w #0x0000, TSTAT1		| 割り込みフラグをクリア
 352      00FF F60A 
 353 0228 4EBA 0030 		jsr CALL_RP				| 登録タスクをコール
 354               	
 355               	finish_timer_interrupt:				| タイマ割り込みの終了処理
 356 022c 4CDF 0101 		movem.l (%SP)+, %d0/%a0		| レジスタを復帰
 357 0230 4E73      		rte					| 割り込みから復帰
 358               	
 359               	**********************************************************
 360               	**タイマ制御ルーチン 作成者:松下 レビュー:鵜飼, 平川
 361               	**********************************************************
 362               	RESET_TIMER:					| タイマ停止とリセット
 363 0232 33FC 0004 	        move.w #0x0004, TCTL1		| カウンタ停止＆リスタート設定
 363      00FF F600 
 364 023a 4E75      		rts					| 呼び出し元へ戻る
 365               	
 366               	SET_TIMER:					| タイマ設定システムコール
 367 023c 23C2 0000 	        move.l %d2, task_p			| コールバックアドレスを保存
 367      0000 
 368 0242 33FC 00CE 		move.w #206, TPRER1			| プリスケーラ設定
 368      00FF F602 
 369 024a 33C1 00FF 		move.w %d1, TCMP1			| コンペア値を設定
 369      F604 
 370 0250 33FC 0015 		move.w #0x0015, TCTL1		| タイマをスタート
 370      00FF F600 
 371 0258 4E75      		rts					| 呼び出し元へ戻る
 372               	
 373               	CALL_RP:					| 登録タスク呼び出し
 374 025a 48E7 0080 		movem.l %a0, -(%sp)		| アドレスレジスタを退避
 375 025e 2079 0000 		movea.l task_p, %a0			| 登録されているタスクをロード
 375      0000 
 376 0264 4E90      		jsr    (%a0)				| タスクを実行
 377 0266 4CDF 0100 		movem.l (%sp)+, %a0		| レジスタを復帰
 378 026a 4E75      		rts					| 呼び出し元へ戻る
 379               	
 380               	*********************************************************
 381               	**システムコールインターフェース 作成者:平川 レビュー:松下
 382               	*********************************************************
 383               	systemcall_if:					| trap #0 によるシステムコール入口
 384 026c 0C80 0000 		cmpi.l  #SYSCALL_NUM_SKIPMT, %D0
 384      0005 
 385 0272 6700 FF98 		beq     check_timer_interrupt   | 5番ならタイマ割り込み処理へジャンプ
 386 0276 48E7 7FFE 		movem.l %D1-%D7/%A0-%A6, -(%sp)	| 破壊する汎用レジスタを保存
 387               	
 388 027a 0C80 0000 		cmpi.l #SYSCALL_NUM_GETSTRING, %D0	| システムコール番号判定
 388      0001 
 389 0280 6700 0024 		beq CALL_GETSTRING
 390 0284 0C80 0000 		cmpi.l #SYSCALL_NUM_PUTSTRING, %D0
 390      0002 


 391 028a 6700 0022 		beq CALL_PUTSTRING
 392 028e 0C80 0000 		cmpi.l #SYSCALL_NUM_RESET_TIMER, %D0
 392      0003 
 393 0294 6700 0020 		beq CALL_RESET_TIMER
 394 0298 0C80 0000 		cmpi.l #SYSCALL_NUM_SET_TIMER, %D0
 394      0004 
 395 029e 6700 001E 		beq CALL_SET_TIMER
 396 02a2 6000 0022 		bra sys_EXIT				| 未定義番号はそのまま戻る
 397               	
 398               	CALL_GETSTRING:				| GETSTRING呼び出し
 399 02a6 4EBA FF10 		jsr GETSTRING
 400 02aa 6000 001A 		bra sys_EXIT
 401               	
 402               	CALL_PUTSTRING:				| PUTSTRING呼び出し
 403 02ae 4EBA FEB8 		jsr PUTSTRING
 404 02b2 6000 0012 		bra sys_EXIT
 405               	
 406               	CALL_RESET_TIMER:				| RESET_TIMER呼び出し
 407 02b6 4EBA FF7A 		jsr RESET_TIMER
 408 02ba 6000 000A 		bra sys_EXIT
 409               	
 410               	CALL_SET_TIMER:				| SET_TIMER呼び出し
 411 02be 4EBA FF7C 		jsr SET_TIMER
 412 02c2 6000 0002 		bra sys_EXIT
 413               	
 414               	sys_EXIT:					| システムコール出口
 415 02c6 4CDF 7FFE 		movem.l (%sp)+, %D1-%D7/%A0-%A6	| レジスタを復帰
 416 02ca 4E73      		rte					| トラップから復帰
 417               		
 418               	*********************************************************
 419               	**キュー 作成者:平野, 札場 レビュー:鵜飼, 平川
 420               	*********************************************************
 421               	Q_INIT:	/*構造体とバッファの初期化サブルーチン*/
 422 02cc 48E7 80C0 		movem.l %d0/%a0-%a1, -(%a7) /*レジスタの退避*/
 423               	
 424 02d0 43F9 0000 		lea.l   QST_TABLE, %a1          /* QST[0] のアドレス*/
 424      0000 
 425 02d6 41F9 0000 		lea.l   Q_0, %a0         /* BUFFER_0 のアドレス*/
 425      0000 
 426 02dc 4EBA 0018 		jsr     INIT_SINGLE_Q           /*1キュー分を初期化*/
 427               	
 428 02e0 43F9 0000 		lea.l   QST_TABLE+(QST_SIZE*1), %a1 /*QST[1]の初期化 */
 428      0000 
 429 02e6 41F9 0000 		lea.l   Q_1, %a0
 429      0000 
 430 02ec 4EBA 0008 		jsr     INIT_SINGLE_Q
 431               	    
 432 02f0 4CDF 0301 		movem.l (%a7)+, %d0/%a0-%a1 /*レジスタの復帰*/
 433 02f4 4E75      		rts
 434               	
 435               		
 436               	INIT_SINGLE_Q:
 437 02f6 2348 0000 		move.l  %a0, in(%a1)     /*ポインタの初期化*/
 438 02fa 2348 0004 		move.l  %a0, out(%a1)     
 439 02fe 2348 0008 		move.l  %a0, top(%a1)    /*topをa0へ*/
 440               	    
 441 0302 D1FC 0000 		add.l   #B_SIZE-1, %a0


 441      00FF 
 442 0308 2348 000C 		move.l  %a0, bottom(%a1)      /*bottomをa0へ*/
 443               	
 444 030c 337C 0000 		move.w  #0,s(%a1) /*sを0へ*/
 444      0010 
 445               	     
 446 0312 4E75      		rts
 447               	
 448               	INQ:/*キュー#noにp番地のデータを入れるサブルーチン*/
 449 0314 40E7      		move.w %SR,-(%a7)				| ステータスレジスタを退避
 450 0316 48E7 20E0 		movem.l %d2/%a0-%a2, -(%a7) /*レジスタの退避*/
 451 031a 46FC 2700 		move.w #0x2700,%SR				| 割り込み禁止で排他制御
 452 031e 43F9 0000 		lea.l   QST_TABLE, %a1 /*キューの選択*/
 452      0000 
 453 0324 343C 0014 		move.w  #QST_SIZE, %d2			| 構造体サイズをロード
 454 0328 C4C0      		mulu.w  %d0, %d2				| キュー番号ぶんオフセット計算
 455 032a D3C2      		add.l   %d2, %a1				| 対象キューの管理構造体を指す
 456 032c 1001      		move.b  %d1, %d0				| データを下位8bitへ
 457 032e 4EBA 000A 		jsr     PUT_BUF				| バッファ書き込み処理へ
 458 0332 4CDF 0704 		movem.l (%a7)+, %d2/%a0-%a2 /*レジスタの復帰*/
 459 0336 46DF      		move.w (%a7)+,%SR				| ステータスレジスタを復帰
 460 0338 4E75      		rts						| 呼び出し元へ戻る
 461               	
 462               	PUT_BUF: /*キューへのデータ書き込みをするサブルーチン*/
 463 033a 48E7 40A0 		movem.l %d1/%a0/%a2, -(%a7) /*レジスタの退避*/
 464               	
 465 033e 0C69 0100 		cmp.w   #0x0100, s(%a1) /*空き容量の確認*/
 465      0010 
 466 0344 6700 002C 		beq	PUT_FAIL
 467               	
 468 0348 2069 0000 		move.l  in(%a1), %a0 /*データの書き込み*/
 469 034c 1080      		move.b  %d0, (%a0)
 470 034e 2469 000C 		move.l  bottom(%a1), %a2		| バッファ末尾アドレスを取得
 471 0352 B1CA      		cmp.l   %a2, %a0 /*キューの端か*/
 472 0354 6600 000A 		bne     PUT_CAN
 473 0358 2069 0008 		move.l  top(%a1), %a0			| 末尾に到達したので先頭へ折り返し
 474 035c 6000 0004 		bra	PUT_UPDATE_PTR			| ポインタ更新処理へ
 475               	PUT_CAN:
 476 0360 5288      		addq.l  #1, %a0				| 次のアドレスへ進める
 477               	PUT_UPDATE_PTR:
 478 0362 2348 0000 		move.l  %a0, in(%a1)			| inポインタを更新
 479               	PUT_SET_GET_FLG:
 480 0366 5269 0010 		addq.w  #1, s(%a1) /*読み出し許可*/
 481 036a 303C 0001 		move.w  #1, %d0
 482 036e 6000 0006 		bra     PUT_DONE
 483               	PUT_FAIL:
 484 0372 303C 0000 		move.w  #0, %d0
 485               	PUT_DONE:
 486 0376 4CDF 0502 		movem.l (%a7)+, %d1/%a0/%a2 /*レジスタの復帰*/
 487 037a 4E75      		rts
 488               	
 489               	OUTQ: /*キュー#noからデータを一つ取り出し，p番地にcopyするサブルーチン*/
 490 037c 40E7      		move.w %SR,-(%a7)				| ステータスレジスタを退避
 491 037e 48E7 20E0 		movem.l %d2/%a0-%a2, -(%a7) /*レジスタの退避*/
 492 0382 46FC 2700 		move.w #0x2700,%SR				| 割り込み禁止で排他制御
 493 0386 43F9 0000 		lea.l   QST_TABLE, %a1 /*キューの選択*/
 493      0000 


 494 038c 343C 0014 		move.w  #QST_SIZE, %d2			| 構造体のサイズをロード
 495 0390 C4C0      		mulu.w  %d0, %d2				| キュー番号分だけ先へ進める
 496 0392 D3C2      		add.l   %d2, %a1				| 対象キュー構造体へ
 497 0394 4EBA 000A 		jsr     GET_BUF				| データ取り出し処理へ
 498               		
 499 0398 4CDF 0704 		movem.l (%a7)+, %d2/%a0-%a2 /*レジスタの復帰*/
 500 039c 46DF      		move.w (%a7)+,%SR				| ステータスレジスタ復帰
 501 039e 4E75      		rts						| 呼び出し元へ戻る
 502               	
 503               	GET_BUF: /*キューからのデータ読み出しをするサブルーチン*/
 504 03a0 48E7 00A0 		movem.l %a0/%a2, -(%a7) /*レジスタの退避*/
 505 03a4 0C69 0000 		cmp.w   #0x00, s(%a1) /*容量の確認*/
 505      0010 
 506 03aa 6700 002C 		beq     GET_FAIL
 507 03ae 2069 0004 		move.l  out(%a1), %a0 /*データの読み出し*/
 508 03b2 1210      		move.b  (%a0), %d1
 509               		
 510 03b4 2469 000C 		move.l  bottom(%a1), %a2 /*ポインタの更新*/
 511 03b8 B1CA      		cmp.l   %a2, %a0 /*キューの端か*/
 512 03ba 6600 000A 		bne     GET_CAN
 513 03be 2069 0008 		move.l  top(%a1), %a0			| 末尾に達したので先頭へ戻す
 514 03c2 6000 0004 		bra     GET_UPDATE_PTR			| ポインタ更新処理へ
 515               	GET_CAN:
 516 03c6 5288      		addq.l  #1, %a0				| 次のアドレスを指す	
 517               	GET_UPDATE_PTR:
 518 03c8 2348 0004 		move.l  %a0, out(%a1)			| outポインタを更新
 519               	GET_SET_PUT_FLG:
 520 03cc 5369 0010 		subq.w  #1, s(%a1) /*書き込み許可*/
 521 03d0 303C 0001 		move.w  #1, %d0				| 読み出し成功を知らせる
 522 03d4 6000 0006 		bra     GET_DONE
 523               	GET_FAIL:
 524 03d8 303C 0000 		move.w  #0, %d0				| 読み出し失敗を通知
 525               	    
 526               	GET_DONE:
 527 03dc 4CDF 0500 		movem.l (%a7)+, %a0/%a2 /*レジスタの復帰*/
 528 03e0 4E75      		rts					| 呼び出し元へ戻る
 529               		
 530               	
 531               		
 532               	.section .data
 533               		.equ B_SIZE,256
 534               	
 535               		.equ    in, 0    /*次に書き込むアドレス*/
 536               		.equ    out, 4    /*次に読み出すアドレス*/
 537               		.equ    top, 8   /*バッファの先頭アドレス*/
 538               		.equ    bottom, 12    /*バッファの末尾アドレス*/
 539               		.equ    s, 16  
 540               	
 541               		.equ    QST_SIZE, 20   /* キュー管理構造体1つあたりのサイズ */
 542               	QST_TABLE:
 543 000a 0000 0000 	    .ds.b   QST_SIZE * 2 /*構造体2つ分のメモリ確保*/
 543      0000 0000 
 543      0000 0000 
 543      0000 0000 
 543      0000 0000 
 544               	
 545               	/* 各キューのバッファを2つ確保 */


 546               	Q_0:
 547 0032 0000 0000 		.ds.b   B_SIZE
 547      0000 0000 
 547      0000 0000 
 547      0000 0000 
 547      0000 0000 
 548               	Q_1:
 549 0132 0000 0000 		.ds.b   B_SIZE
 549      0000 0000 
 549      0000 0000 
 549      0000 0000 
 549      0000 0000 
 550               		
 551               		.end	




   1               	#NO_APP
   2               		.file	"csys68k.c"
   3               		.text
   4               	.Ltext0:
   5               		.cfi_sections	.debug_frame
   6               		.align	2
   7               		.globl	read
   8               		.type	read, @function
   9               	read:
  10               	.LVL0:
  11               	.LFB0:
  12               		.file 1 "csys68k.c"
   1:csys68k.c     **** extern void outbyte(unsigned char c);
   2:csys68k.c     **** extern char inbyte();
   3:csys68k.c     **** 
   4:csys68k.c     **** int read(int fd, char *buf, int nbytes)
   5:csys68k.c     **** {
  13               		.loc 1 5 1 view -0
  14               		.cfi_startproc
  15               		.loc 1 5 1 is_stmt 0 view .LVU1
  16 0000 48E7 3838 		movem.l #14392,-(%sp)
  17               		.cfi_def_cfa_offset 28
  18               		.cfi_offset 2, -28
  19               		.cfi_offset 3, -24
  20               		.cfi_offset 4, -20
  21               		.cfi_offset 10, -16
  22               		.cfi_offset 11, -12
  23               		.cfi_offset 12, -8
  24 0004 286F 0020 		move.l 32(%sp),%a4
  25 0008 282F 0024 		move.l 36(%sp),%d4
   6:csys68k.c     ****   char c;
  26               		.loc 1 6 3 is_stmt 1 view .LVU2
   7:csys68k.c     ****   int  i;
  27               		.loc 1 7 3 view .LVU3
   8:csys68k.c     **** 
   9:csys68k.c     ****   for (i = 0; i < nbytes; i++) {
  28               		.loc 1 9 3 view .LVU4
  29               	.LVL1:
  30               		.loc 1 9 17 view .LVU5
  31               		.loc 1 9 10 is_stmt 0 view .LVU6
  32 000c 7600      		moveq #0,%d3
  33               		.loc 1 9 17 view .LVU7
  34 000e 4A84      		tst.l %d4
  35 0010 6F36      		jle .L1
  36 0012 47F9 0000 		lea inbyte,%a3
  36      0000 
  37 0018 45F9 0000 		lea outbyte,%a2
  37      0000 
  38               	.LVL2:
  39               	.L8:
  10:csys68k.c     ****     c = inbyte();
  40               		.loc 1 10 5 is_stmt 1 view .LVU8
  41               		.loc 1 10 9 is_stmt 0 view .LVU9
  42 001e 4E93      		jsr (%a3)
  43               	.LVL3:
  44 0020 1400      		move.b %d0,%d2
  45               	.LVL4:


  11:csys68k.c     **** 
  12:csys68k.c     ****     if (c == '\r' || c == '\n'){ /* CR -> CRLF */
  46               		.loc 1 12 5 is_stmt 1 view .LVU10
  47               		.loc 1 12 8 is_stmt 0 view .LVU11
  48 0022 0C00 000D 		cmp.b #13,%d0
  49 0026 6728      		jeq .L3
  50               		.loc 1 12 19 discriminator 1 view .LVU12
  51 0028 0C00 000A 		cmp.b #10,%d0
  52 002c 6722      		jeq .L3
  13:csys68k.c     ****       outbyte('\r');
  14:csys68k.c     ****       outbyte('\n');
  15:csys68k.c     ****       *(buf + i) = '\n';
  16:csys68k.c     **** 
  17:csys68k.c     ****     /* } else if (c == '\x8'){ */     /* backspace \x8 */
  18:csys68k.c     ****     } else if (c == '\x7f'){      /* backspace \x8 -> \x7f (by terminal config.) */
  53               		.loc 1 18 12 is_stmt 1 view .LVU13
  54               		.loc 1 18 15 is_stmt 0 view .LVU14
  55 002e 0C00 007F 		cmp.b #127,%d0
  56 0032 673A      		jeq .L18
  19:csys68k.c     ****       if (i > 0){
  20:csys68k.c     **** 	outbyte('\x8'); /* bs  */
  21:csys68k.c     **** 	outbyte(' ');   /* spc */
  22:csys68k.c     **** 	outbyte('\x8'); /* bs  */
  23:csys68k.c     **** 	i--;
  24:csys68k.c     ****       }
  25:csys68k.c     ****       i--;
  26:csys68k.c     ****       continue;
  27:csys68k.c     **** 
  28:csys68k.c     ****     } else {
  29:csys68k.c     ****       outbyte(c);
  57               		.loc 1 29 7 is_stmt 1 view .LVU15
  58 0034 7000      		moveq #0,%d0
  59               	.LVL5:
  60               		.loc 1 29 7 is_stmt 0 view .LVU16
  61 0036 1002      		move.b %d2,%d0
  62 0038 2F00      		move.l %d0,-(%sp)
  63               		.cfi_def_cfa_offset 32
  64 003a 4E92      		jsr (%a2)
  65               	.LVL6:
  30:csys68k.c     ****       *(buf + i) = c;
  66               		.loc 1 30 7 is_stmt 1 view .LVU17
  67               		.loc 1 30 18 is_stmt 0 view .LVU18
  68 003c 1982 3800 		move.b %d2,(%a4,%d3.l)
  31:csys68k.c     ****     }
  32:csys68k.c     **** 
  33:csys68k.c     ****     if (*(buf + i) == '\n'){
  69               		.loc 1 33 5 is_stmt 1 view .LVU19
  34:csys68k.c     ****       return (i + 1);
  70               		.loc 1 34 17 is_stmt 0 view .LVU20
  71 0040 5283      		addq.l #1,%d3
  72               	.LVL7:
  73               		.loc 1 34 17 view .LVU21
  74 0042 588F      		addq.l #4,%sp
  75               		.cfi_def_cfa_offset 28
  76               	.LVL8:
   9:csys68k.c     ****     c = inbyte();
  77               		.loc 1 9 28 is_stmt 1 view .LVU22


   9:csys68k.c     ****     c = inbyte();
  78               		.loc 1 9 17 view .LVU23
  79 0044 B684      		cmp.l %d4,%d3
  80 0046 6DD6      		jlt .L8
  81               	.LVL9:
  82               	.L1:
  35:csys68k.c     ****     }
  36:csys68k.c     ****   }
  37:csys68k.c     ****   return (i);
  38:csys68k.c     **** }
  83               		.loc 1 38 1 is_stmt 0 view .LVU24
  84 0048 2003      		move.l %d3,%d0
  85 004a 4CDF 1C1C 		movem.l (%sp)+,#7196
  86 004e 4E75      		rts
  87               	.LVL10:
  88               	.L3:
  13:csys68k.c     ****       outbyte('\n');
  89               		.loc 1 13 7 is_stmt 1 view .LVU25
  90 0050 4878 000D 		pea 13.w
  91               		.cfi_def_cfa_offset 32
  92 0054 4E92      		jsr (%a2)
  93               	.LVL11:
  14:csys68k.c     ****       *(buf + i) = '\n';
  94               		.loc 1 14 7 view .LVU26
  95 0056 4878 000A 		pea 10.w
  96               		.cfi_def_cfa_offset 36
  97 005a 4E92      		jsr (%a2)
  98               	.LVL12:
  15:csys68k.c     **** 
  99               		.loc 1 15 7 view .LVU27
  15:csys68k.c     **** 
 100               		.loc 1 15 18 is_stmt 0 view .LVU28
 101 005c 19BC 000A 		move.b #10,(%a4,%d3.l)
 101      3800 
  33:csys68k.c     ****       return (i + 1);
 102               		.loc 1 33 5 is_stmt 1 view .LVU29
  34:csys68k.c     ****     }
 103               		.loc 1 34 7 view .LVU30
  34:csys68k.c     ****     }
 104               		.loc 1 34 17 is_stmt 0 view .LVU31
 105 0062 5283      		addq.l #1,%d3
 106               	.LVL13:
  34:csys68k.c     ****     }
 107               		.loc 1 34 17 view .LVU32
 108 0064 508F      		addq.l #8,%sp
 109               		.cfi_def_cfa_offset 28
 110               		.loc 1 38 1 view .LVU33
 111 0066 2003      		move.l %d3,%d0
 112 0068 4CDF 1C1C 		movem.l (%sp)+,#7196
 113               	.LVL14:
 114               		.loc 1 38 1 view .LVU34
 115 006c 4E75      		rts
 116               	.LVL15:
 117               	.L18:
  19:csys68k.c     **** 	outbyte('\x8'); /* bs  */
 118               		.loc 1 19 7 is_stmt 1 view .LVU35
  19:csys68k.c     **** 	outbyte('\x8'); /* bs  */


 119               		.loc 1 19 10 is_stmt 0 view .LVU36
 120 006e 4A83      		tst.l %d3
 121 0070 67AC      		jeq .L8
  23:csys68k.c     ****       }
 122               		.loc 1 23 3 view .LVU37
 123 0072 5383      		subq.l #1,%d3
 124               	.LVL16:
  20:csys68k.c     **** 	outbyte(' ');   /* spc */
 125               		.loc 1 20 2 is_stmt 1 view .LVU38
 126 0074 4878 0008 		pea 8.w
 127               		.cfi_def_cfa_offset 32
 128 0078 4E92      		jsr (%a2)
 129               	.LVL17:
  21:csys68k.c     **** 	outbyte('\x8'); /* bs  */
 130               		.loc 1 21 2 view .LVU39
 131 007a 4878 0020 		pea 32.w
 132               		.cfi_def_cfa_offset 36
 133 007e 4E92      		jsr (%a2)
 134               	.LVL18:
  22:csys68k.c     **** 	i--;
 135               		.loc 1 22 2 view .LVU40
 136 0080 4878 0008 		pea 8.w
 137               		.cfi_def_cfa_offset 40
 138 0084 4E92      		jsr (%a2)
 139               	.LVL19:
  23:csys68k.c     ****       }
 140               		.loc 1 23 2 view .LVU41
  25:csys68k.c     ****       continue;
 141               		.loc 1 25 7 view .LVU42
  26:csys68k.c     **** 
 142               		.loc 1 26 7 view .LVU43
 143 0086 4FEF 000C 		lea (12,%sp),%sp
 144               		.cfi_def_cfa_offset 28
 145               	.LVL20:
   9:csys68k.c     ****     c = inbyte();
 146               		.loc 1 9 28 view .LVU44
   9:csys68k.c     ****     c = inbyte();
 147               		.loc 1 9 17 view .LVU45
 148 008a B684      		cmp.l %d4,%d3
 149 008c 6D90      		jlt .L8
 150 008e 60B8      		jra .L1
 151               		.cfi_endproc
 152               	.LFE0:
 153               		.size	read, .-read
 154               		.align	2
 155               		.globl	write
 156               		.type	write, @function
 157               	write:
 158               	.LVL21:
 159               	.LFB1:
  39:csys68k.c     **** 
  40:csys68k.c     **** int write (int fd, char *buf, int nbytes)
  41:csys68k.c     **** {
 160               		.loc 1 41 1 view -0
 161               		.cfi_startproc
 162               		.loc 1 41 1 is_stmt 0 view .LVU47
 163 0090 48E7 3030 		movem.l #12336,-(%sp)


 164               		.cfi_def_cfa_offset 20
 165               		.cfi_offset 2, -20
 166               		.cfi_offset 3, -16
 167               		.cfi_offset 10, -12
 168               		.cfi_offset 11, -8
 169 0094 262F 001C 		move.l 28(%sp),%d3
  42:csys68k.c     ****   int i, j;
 170               		.loc 1 42 3 is_stmt 1 view .LVU48
  43:csys68k.c     ****   for (i = 0; i < nbytes; i++) {
 171               		.loc 1 43 3 view .LVU49
 172               	.LVL22:
 173               		.loc 1 43 17 view .LVU50
 174 0098 6F26      		jle .L25
 175 009a 246F 0018 		move.l 24(%sp),%a2
 176 009e 240A      		move.l %a2,%d2
 177 00a0 D483      		add.l %d3,%d2
 178 00a2 47F9 0000 		lea outbyte,%a3
 178      0000 
 179               	.LVL23:
 180               	.L22:
  44:csys68k.c     ****     if (*(buf + i) == '\n') {
 181               		.loc 1 44 5 view .LVU51
 182               		.loc 1 44 9 is_stmt 0 view .LVU52
 183 00a8 101A      		move.b (%a2)+,%d0
 184               	.LVL24:
 185               		.loc 1 44 8 view .LVU53
 186 00aa 0C00 000A 		cmp.b #10,%d0
 187 00ae 6718      		jeq .L28
  45:csys68k.c     ****       outbyte ('\r');          /* LF -> CRLF */
  46:csys68k.c     ****     }
  47:csys68k.c     ****     outbyte (*(buf + i));
 188               		.loc 1 47 5 is_stmt 1 view .LVU54
 189 00b0 0280 0000 		and.l #255,%d0
 189      00FF 
 190 00b6 2F00      		move.l %d0,-(%sp)
 191               		.cfi_def_cfa_offset 24
 192 00b8 4E93      		jsr (%a3)
 193               	.LVL25:
  48:csys68k.c     ****     for (j = 0; j < 300; j++);
 194               		.loc 1 48 5 view .LVU55
 195               		.loc 1 48 19 view .LVU56
  43:csys68k.c     ****     if (*(buf + i) == '\n') {
 196               		.loc 1 43 28 view .LVU57
  43:csys68k.c     ****     if (*(buf + i) == '\n') {
 197               		.loc 1 43 17 view .LVU58
 198 00ba 588F      		addq.l #4,%sp
 199               		.cfi_def_cfa_offset 20
 200 00bc B48A      		cmp.l %a2,%d2
 201 00be 66E8      		jne .L22
 202               	.LVL26:
 203               	.L25:
  49:csys68k.c     ****   }
  50:csys68k.c     ****   return (nbytes);
  51:csys68k.c     **** }
 204               		.loc 1 51 1 is_stmt 0 view .LVU59
 205 00c0 2003      		move.l %d3,%d0
 206 00c2 4CDF 0C0C 		movem.l (%sp)+,#3084


 207 00c6 4E75      		rts
 208               	.LVL27:
 209               	.L28:
  45:csys68k.c     ****     }
 210               		.loc 1 45 7 is_stmt 1 view .LVU60
 211 00c8 4878 000D 		pea 13.w
 212               		.cfi_def_cfa_offset 24
 213 00cc 4E93      		jsr (%a3)
 214               	.LVL28:
  47:csys68k.c     ****     for (j = 0; j < 300; j++);
 215               		.loc 1 47 14 is_stmt 0 view .LVU61
 216 00ce 102A FFFF 		move.b -1(%a2),%d0
 217 00d2 588F      		addq.l #4,%sp
 218               		.cfi_def_cfa_offset 20
  47:csys68k.c     ****     for (j = 0; j < 300; j++);
 219               		.loc 1 47 5 is_stmt 1 view .LVU62
 220 00d4 0280 0000 		and.l #255,%d0
 220      00FF 
 221 00da 2F00      		move.l %d0,-(%sp)
 222               		.cfi_def_cfa_offset 24
 223 00dc 4E93      		jsr (%a3)
 224               	.LVL29:
  48:csys68k.c     ****   }
 225               		.loc 1 48 5 view .LVU63
  48:csys68k.c     ****   }
 226               		.loc 1 48 19 view .LVU64
  43:csys68k.c     ****     if (*(buf + i) == '\n') {
 227               		.loc 1 43 28 view .LVU65
  43:csys68k.c     ****     if (*(buf + i) == '\n') {
 228               		.loc 1 43 17 view .LVU66
 229 00de 588F      		addq.l #4,%sp
 230               		.cfi_def_cfa_offset 20
 231 00e0 B48A      		cmp.l %a2,%d2
 232 00e2 66C4      		jne .L22
 233 00e4 60DA      		jra .L25
 234               		.cfi_endproc
 235               	.LFE1:
 236               		.size	write, .-write
 237               	.Letext0:
 238               		.section	.debug_info,"",@progbits
 239               	.Ldebug_info0:
 240 0000 0000 017B 		.long	0x17b
 241 0004 0005      		.word	0x5
 242 0006 01        		.byte	0x1
 243 0007 04        		.byte	0x4
 244 0008 0000 0000 		.long	.Ldebug_abbrev0
 245 000c 06        		.uleb128 0x6
 246 000d 0000 0000 		.long	.LASF5
 247 0011 1D        		.byte	0x1d
 248 0012 0000 0000 		.long	.LASF6
 249 0016 0000 0000 		.long	.LASF7
 250 001a 0000 0000 		.long	.Ltext0
 251 001e 0000 00E6 		.long	.Letext0-.Ltext0
 252 0022 0000 0000 		.long	.Ldebug_line0
 253 0026 07        		.uleb128 0x7
 254 0027 0000 0000 		.long	.LASF0
 255 002b 01        		.byte	0x1


 256 002c 01        		.byte	0x1
 257 002d 0D        		.byte	0xd
 258 002e 0000 0038 		.long	0x38
 259 0032 08        		.uleb128 0x8
 260 0033 0000 0038 		.long	0x38
 261 0037 00        		.byte	0
 262 0038 04        		.uleb128 0x4
 263 0039 08        		.byte	0x8
 264 003a 0000 0000 		.long	.LASF2
 265 003e 09        		.uleb128 0x9
 266 003f 0000 0000 		.long	.LASF1
 267 0043 01        		.byte	0x1
 268 0044 02        		.byte	0x2
 269 0045 0D        		.byte	0xd
 270 0046 0000 0050 		.long	0x50
 271 004a 0000 0050 		.long	0x50
 272 004e 0A        		.uleb128 0xa
 273 004f 00        		.byte	0
 274 0050 04        		.uleb128 0x4
 275 0051 06        		.byte	0x6
 276 0052 0000 0000 		.long	.LASF3
 277 0056 0B        		.uleb128 0xb
 278 0057 0000 0000 		.long	.LASF8
 279 005b 01        		.byte	0x1
 280 005c 28        		.byte	0x28
 281 005d 05        		.byte	0x5
 282 005e 0000 00D0 		.long	0xd0
 283 0062 0000 0000 		.long	.LFB1
 284 0066 0000 0056 		.long	.LFE1-.LFB1
 285 006a 01        		.uleb128 0x1
 286 006b 9C        		.byte	0x9c
 287 006c 0000 00D0 		.long	0xd0
 288 0070 02        		.uleb128 0x2
 289 0071 6664 00   		.string	"fd"
 290 0074 28        		.byte	0x28
 291 0075 10        		.byte	0x10
 292 0076 0000 00D0 		.long	0xd0
 293 007a 02        		.uleb128 0x2
 294 007b 91        		.byte	0x91
 295 007c 00        		.sleb128 0
 296 007d 02        		.uleb128 0x2
 297 007e 6275 6600 		.string	"buf"
 298 0082 28        		.byte	0x28
 299 0083 1A        		.byte	0x1a
 300 0084 0000 00D7 		.long	0xd7
 301 0088 02        		.uleb128 0x2
 302 0089 91        		.byte	0x91
 303 008a 04        		.sleb128 4
 304 008b 05        		.uleb128 0x5
 305 008c 0000 0000 		.long	.LASF4
 306 0090 28        		.byte	0x28
 307 0091 23        		.byte	0x23
 308 0092 0000 00D0 		.long	0xd0
 309 0096 02        		.uleb128 0x2
 310 0097 91        		.byte	0x91
 311 0098 08        		.sleb128 8
 312 0099 03        		.uleb128 0x3


 313 009a 6900      		.string	"i"
 314 009c 2A        		.byte	0x2a
 315 009d 07        		.byte	0x7
 316 009e 0000 00D0 		.long	0xd0
 317 00a2 0000 0000 		.long	.LLST2
 318 00a6 0000 0000 		.long	.LVUS2
 319 00aa 0C        		.uleb128 0xc
 320 00ab 6A00      		.string	"j"
 321 00ad 01        		.byte	0x1
 322 00ae 2A        		.byte	0x2a
 323 00af 0A        		.byte	0xa
 324 00b0 0000 00D0 		.long	0xd0
 325 00b4 01        		.uleb128 0x1
 326 00b5 0000 0000 		.long	.LVL25
 327 00b9 0000 0026 		.long	0x26
 328 00bd 01        		.uleb128 0x1
 329 00be 0000 0000 		.long	.LVL28
 330 00c2 0000 0026 		.long	0x26
 331 00c6 01        		.uleb128 0x1
 332 00c7 0000 0000 		.long	.LVL29
 333 00cb 0000 0026 		.long	0x26
 334 00cf 00        		.byte	0
 335 00d0 0D        		.uleb128 0xd
 336 00d1 04        		.byte	0x4
 337 00d2 05        		.byte	0x5
 338 00d3 696E 7400 		.string	"int"
 339 00d7 0E        		.uleb128 0xe
 340 00d8 04        		.byte	0x4
 341 00d9 0000 0050 		.long	0x50
 342 00dd 0F        		.uleb128 0xf
 343 00de 0000 0000 		.long	.LASF9
 344 00e2 01        		.byte	0x1
 345 00e3 04        		.byte	0x4
 346 00e4 05        		.byte	0x5
 347 00e5 0000 00D0 		.long	0xd0
 348 00e9 0000 0000 		.long	.LFB0
 349 00ed 0000 0090 		.long	.LFE0-.LFB0
 350 00f1 01        		.uleb128 0x1
 351 00f2 9C        		.byte	0x9c
 352 00f3 02        		.uleb128 0x2
 353 00f4 6664 00   		.string	"fd"
 354 00f7 04        		.byte	0x4
 355 00f8 0E        		.byte	0xe
 356 00f9 0000 00D0 		.long	0xd0
 357 00fd 02        		.uleb128 0x2
 358 00fe 91        		.byte	0x91
 359 00ff 00        		.sleb128 0
 360 0100 02        		.uleb128 0x2
 361 0101 6275 6600 		.string	"buf"
 362 0105 04        		.byte	0x4
 363 0106 18        		.byte	0x18
 364 0107 0000 00D7 		.long	0xd7
 365 010b 02        		.uleb128 0x2
 366 010c 91        		.byte	0x91
 367 010d 04        		.sleb128 4
 368 010e 05        		.uleb128 0x5
 369 010f 0000 0000 		.long	.LASF4


 370 0113 04        		.byte	0x4
 371 0114 21        		.byte	0x21
 372 0115 0000 00D0 		.long	0xd0
 373 0119 02        		.uleb128 0x2
 374 011a 91        		.byte	0x91
 375 011b 08        		.sleb128 8
 376 011c 03        		.uleb128 0x3
 377 011d 6300      		.string	"c"
 378 011f 06        		.byte	0x6
 379 0120 08        		.byte	0x8
 380 0121 0000 0050 		.long	0x50
 381 0125 0000 0000 		.long	.LLST0
 382 0129 0000 0000 		.long	.LVUS0
 383 012d 03        		.uleb128 0x3
 384 012e 6900      		.string	"i"
 385 0130 07        		.byte	0x7
 386 0131 08        		.byte	0x8
 387 0132 0000 00D0 		.long	0xd0
 388 0136 0000 0000 		.long	.LLST1
 389 013a 0000 0000 		.long	.LVUS1
 390 013e 01        		.uleb128 0x1
 391 013f 0000 0000 		.long	.LVL3
 392 0143 0000 003E 		.long	0x3e
 393 0147 01        		.uleb128 0x1
 394 0148 0000 0000 		.long	.LVL6
 395 014c 0000 0026 		.long	0x26
 396 0150 01        		.uleb128 0x1
 397 0151 0000 0000 		.long	.LVL11
 398 0155 0000 0026 		.long	0x26
 399 0159 01        		.uleb128 0x1
 400 015a 0000 0000 		.long	.LVL12
 401 015e 0000 0026 		.long	0x26
 402 0162 01        		.uleb128 0x1
 403 0163 0000 0000 		.long	.LVL17
 404 0167 0000 0026 		.long	0x26
 405 016b 01        		.uleb128 0x1
 406 016c 0000 0000 		.long	.LVL18
 407 0170 0000 0026 		.long	0x26
 408 0174 01        		.uleb128 0x1
 409 0175 0000 0000 		.long	.LVL19
 410 0179 0000 0026 		.long	0x26
 411 017d 00        		.byte	0
 412 017e 00        		.byte	0
 413               		.section	.debug_abbrev,"",@progbits
 414               	.Ldebug_abbrev0:
 415 0000 01        		.uleb128 0x1
 416 0001 48        		.uleb128 0x48
 417 0002 00        		.byte	0
 418 0003 7D        		.uleb128 0x7d
 419 0004 01        		.uleb128 0x1
 420 0005 7F        		.uleb128 0x7f
 421 0006 13        		.uleb128 0x13
 422 0007 00        		.byte	0
 423 0008 00        		.byte	0
 424 0009 02        		.uleb128 0x2
 425 000a 05        		.uleb128 0x5
 426 000b 00        		.byte	0


 427 000c 03        		.uleb128 0x3
 428 000d 08        		.uleb128 0x8
 429 000e 3A        		.uleb128 0x3a
 430 000f 21        		.uleb128 0x21
 431 0010 01        		.sleb128 1
 432 0011 3B        		.uleb128 0x3b
 433 0012 0B        		.uleb128 0xb
 434 0013 39        		.uleb128 0x39
 435 0014 0B        		.uleb128 0xb
 436 0015 49        		.uleb128 0x49
 437 0016 13        		.uleb128 0x13
 438 0017 02        		.uleb128 0x2
 439 0018 18        		.uleb128 0x18
 440 0019 00        		.byte	0
 441 001a 00        		.byte	0
 442 001b 03        		.uleb128 0x3
 443 001c 34        		.uleb128 0x34
 444 001d 00        		.byte	0
 445 001e 03        		.uleb128 0x3
 446 001f 08        		.uleb128 0x8
 447 0020 3A        		.uleb128 0x3a
 448 0021 21        		.uleb128 0x21
 449 0022 01        		.sleb128 1
 450 0023 3B        		.uleb128 0x3b
 451 0024 0B        		.uleb128 0xb
 452 0025 39        		.uleb128 0x39
 453 0026 0B        		.uleb128 0xb
 454 0027 49        		.uleb128 0x49
 455 0028 13        		.uleb128 0x13
 456 0029 02        		.uleb128 0x2
 457 002a 17        		.uleb128 0x17
 458 002b B742      		.uleb128 0x2137
 459 002d 17        		.uleb128 0x17
 460 002e 00        		.byte	0
 461 002f 00        		.byte	0
 462 0030 04        		.uleb128 0x4
 463 0031 24        		.uleb128 0x24
 464 0032 00        		.byte	0
 465 0033 0B        		.uleb128 0xb
 466 0034 21        		.uleb128 0x21
 467 0035 01        		.sleb128 1
 468 0036 3E        		.uleb128 0x3e
 469 0037 0B        		.uleb128 0xb
 470 0038 03        		.uleb128 0x3
 471 0039 0E        		.uleb128 0xe
 472 003a 00        		.byte	0
 473 003b 00        		.byte	0
 474 003c 05        		.uleb128 0x5
 475 003d 05        		.uleb128 0x5
 476 003e 00        		.byte	0
 477 003f 03        		.uleb128 0x3
 478 0040 0E        		.uleb128 0xe
 479 0041 3A        		.uleb128 0x3a
 480 0042 21        		.uleb128 0x21
 481 0043 01        		.sleb128 1
 482 0044 3B        		.uleb128 0x3b
 483 0045 0B        		.uleb128 0xb


 484 0046 39        		.uleb128 0x39
 485 0047 0B        		.uleb128 0xb
 486 0048 49        		.uleb128 0x49
 487 0049 13        		.uleb128 0x13
 488 004a 02        		.uleb128 0x2
 489 004b 18        		.uleb128 0x18
 490 004c 00        		.byte	0
 491 004d 00        		.byte	0
 492 004e 06        		.uleb128 0x6
 493 004f 11        		.uleb128 0x11
 494 0050 01        		.byte	0x1
 495 0051 25        		.uleb128 0x25
 496 0052 0E        		.uleb128 0xe
 497 0053 13        		.uleb128 0x13
 498 0054 0B        		.uleb128 0xb
 499 0055 03        		.uleb128 0x3
 500 0056 0E        		.uleb128 0xe
 501 0057 1B        		.uleb128 0x1b
 502 0058 0E        		.uleb128 0xe
 503 0059 11        		.uleb128 0x11
 504 005a 01        		.uleb128 0x1
 505 005b 12        		.uleb128 0x12
 506 005c 06        		.uleb128 0x6
 507 005d 10        		.uleb128 0x10
 508 005e 17        		.uleb128 0x17
 509 005f 00        		.byte	0
 510 0060 00        		.byte	0
 511 0061 07        		.uleb128 0x7
 512 0062 2E        		.uleb128 0x2e
 513 0063 01        		.byte	0x1
 514 0064 3F        		.uleb128 0x3f
 515 0065 19        		.uleb128 0x19
 516 0066 03        		.uleb128 0x3
 517 0067 0E        		.uleb128 0xe
 518 0068 3A        		.uleb128 0x3a
 519 0069 0B        		.uleb128 0xb
 520 006a 3B        		.uleb128 0x3b
 521 006b 0B        		.uleb128 0xb
 522 006c 39        		.uleb128 0x39
 523 006d 0B        		.uleb128 0xb
 524 006e 27        		.uleb128 0x27
 525 006f 19        		.uleb128 0x19
 526 0070 3C        		.uleb128 0x3c
 527 0071 19        		.uleb128 0x19
 528 0072 01        		.uleb128 0x1
 529 0073 13        		.uleb128 0x13
 530 0074 00        		.byte	0
 531 0075 00        		.byte	0
 532 0076 08        		.uleb128 0x8
 533 0077 05        		.uleb128 0x5
 534 0078 00        		.byte	0
 535 0079 49        		.uleb128 0x49
 536 007a 13        		.uleb128 0x13
 537 007b 00        		.byte	0
 538 007c 00        		.byte	0
 539 007d 09        		.uleb128 0x9
 540 007e 2E        		.uleb128 0x2e


 541 007f 01        		.byte	0x1
 542 0080 3F        		.uleb128 0x3f
 543 0081 19        		.uleb128 0x19
 544 0082 03        		.uleb128 0x3
 545 0083 0E        		.uleb128 0xe
 546 0084 3A        		.uleb128 0x3a
 547 0085 0B        		.uleb128 0xb
 548 0086 3B        		.uleb128 0x3b
 549 0087 0B        		.uleb128 0xb
 550 0088 39        		.uleb128 0x39
 551 0089 0B        		.uleb128 0xb
 552 008a 49        		.uleb128 0x49
 553 008b 13        		.uleb128 0x13
 554 008c 3C        		.uleb128 0x3c
 555 008d 19        		.uleb128 0x19
 556 008e 01        		.uleb128 0x1
 557 008f 13        		.uleb128 0x13
 558 0090 00        		.byte	0
 559 0091 00        		.byte	0
 560 0092 0A        		.uleb128 0xa
 561 0093 18        		.uleb128 0x18
 562 0094 00        		.byte	0
 563 0095 00        		.byte	0
 564 0096 00        		.byte	0
 565 0097 0B        		.uleb128 0xb
 566 0098 2E        		.uleb128 0x2e
 567 0099 01        		.byte	0x1
 568 009a 3F        		.uleb128 0x3f
 569 009b 19        		.uleb128 0x19
 570 009c 03        		.uleb128 0x3
 571 009d 0E        		.uleb128 0xe
 572 009e 3A        		.uleb128 0x3a
 573 009f 0B        		.uleb128 0xb
 574 00a0 3B        		.uleb128 0x3b
 575 00a1 0B        		.uleb128 0xb
 576 00a2 39        		.uleb128 0x39
 577 00a3 0B        		.uleb128 0xb
 578 00a4 27        		.uleb128 0x27
 579 00a5 19        		.uleb128 0x19
 580 00a6 49        		.uleb128 0x49
 581 00a7 13        		.uleb128 0x13
 582 00a8 11        		.uleb128 0x11
 583 00a9 01        		.uleb128 0x1
 584 00aa 12        		.uleb128 0x12
 585 00ab 06        		.uleb128 0x6
 586 00ac 40        		.uleb128 0x40
 587 00ad 18        		.uleb128 0x18
 588 00ae 7A        		.uleb128 0x7a
 589 00af 19        		.uleb128 0x19
 590 00b0 01        		.uleb128 0x1
 591 00b1 13        		.uleb128 0x13
 592 00b2 00        		.byte	0
 593 00b3 00        		.byte	0
 594 00b4 0C        		.uleb128 0xc
 595 00b5 34        		.uleb128 0x34
 596 00b6 00        		.byte	0
 597 00b7 03        		.uleb128 0x3


 598 00b8 08        		.uleb128 0x8
 599 00b9 3A        		.uleb128 0x3a
 600 00ba 0B        		.uleb128 0xb
 601 00bb 3B        		.uleb128 0x3b
 602 00bc 0B        		.uleb128 0xb
 603 00bd 39        		.uleb128 0x39
 604 00be 0B        		.uleb128 0xb
 605 00bf 49        		.uleb128 0x49
 606 00c0 13        		.uleb128 0x13
 607 00c1 00        		.byte	0
 608 00c2 00        		.byte	0
 609 00c3 0D        		.uleb128 0xd
 610 00c4 24        		.uleb128 0x24
 611 00c5 00        		.byte	0
 612 00c6 0B        		.uleb128 0xb
 613 00c7 0B        		.uleb128 0xb
 614 00c8 3E        		.uleb128 0x3e
 615 00c9 0B        		.uleb128 0xb
 616 00ca 03        		.uleb128 0x3
 617 00cb 08        		.uleb128 0x8
 618 00cc 00        		.byte	0
 619 00cd 00        		.byte	0
 620 00ce 0E        		.uleb128 0xe
 621 00cf 0F        		.uleb128 0xf
 622 00d0 00        		.byte	0
 623 00d1 0B        		.uleb128 0xb
 624 00d2 0B        		.uleb128 0xb
 625 00d3 49        		.uleb128 0x49
 626 00d4 13        		.uleb128 0x13
 627 00d5 00        		.byte	0
 628 00d6 00        		.byte	0
 629 00d7 0F        		.uleb128 0xf
 630 00d8 2E        		.uleb128 0x2e
 631 00d9 01        		.byte	0x1
 632 00da 3F        		.uleb128 0x3f
 633 00db 19        		.uleb128 0x19
 634 00dc 03        		.uleb128 0x3
 635 00dd 0E        		.uleb128 0xe
 636 00de 3A        		.uleb128 0x3a
 637 00df 0B        		.uleb128 0xb
 638 00e0 3B        		.uleb128 0x3b
 639 00e1 0B        		.uleb128 0xb
 640 00e2 39        		.uleb128 0x39
 641 00e3 0B        		.uleb128 0xb
 642 00e4 27        		.uleb128 0x27
 643 00e5 19        		.uleb128 0x19
 644 00e6 49        		.uleb128 0x49
 645 00e7 13        		.uleb128 0x13
 646 00e8 11        		.uleb128 0x11
 647 00e9 01        		.uleb128 0x1
 648 00ea 12        		.uleb128 0x12
 649 00eb 06        		.uleb128 0x6
 650 00ec 40        		.uleb128 0x40
 651 00ed 18        		.uleb128 0x18
 652 00ee 7A        		.uleb128 0x7a
 653 00ef 19        		.uleb128 0x19
 654 00f0 00        		.byte	0


 655 00f1 00        		.byte	0
 656 00f2 00        		.byte	0
 657               		.section	.debug_loclists,"",@progbits
 658 0000 0000 00E3 		.long	.Ldebug_loc3-.Ldebug_loc2
 659               	.Ldebug_loc2:
 660 0004 0005      		.word	0x5
 661 0006 04        		.byte	0x4
 662 0007 00        		.byte	0
 663 0008 0000 0000 		.long	0
 664               	.Ldebug_loc0:
 665               	.LVUS2:
 666 000c 02        		.uleb128 .LVU50
 667 000d 00        		.uleb128 .LVU51
 668 000e 00        		.uleb128 .LVU51
 669 000f 00        		.uleb128 .LVU53
 670 0010 00        		.uleb128 .LVU53
 671 0011 03        		.uleb128 .LVU58
 672 0012 03        		.uleb128 .LVU58
 673 0013 00        		.uleb128 .LVU59
 674 0014 00        		.uleb128 .LVU60
 675 0015 03        		.uleb128 .LVU66
 676 0016 03        		.uleb128 .LVU66
 677 0017 00        		.uleb128 0
 678               	.LLST2:
 679 0018 04        		.byte	0x4
 680 0019 9801      		.uleb128 .LVL22-.Ltext0
 681 001b A801      		.uleb128 .LVL23-.Ltext0
 682 001d 02        		.uleb128 0x2
 683 001e 30        		.byte	0x30
 684 001f 9F        		.byte	0x9f
 685 0020 04        		.byte	0x4
 686 0021 A801      		.uleb128 .LVL23-.Ltext0
 687 0023 AA01      		.uleb128 .LVL24-.Ltext0
 688 0025 07        		.uleb128 0x7
 689 0026 7A        		.byte	0x7a
 690 0027 00        		.sleb128 0
 691 0028 91        		.byte	0x91
 692 0029 74        		.sleb128 -12
 693 002a 06        		.byte	0x6
 694 002b 1C        		.byte	0x1c
 695 002c 9F        		.byte	0x9f
 696 002d 04        		.byte	0x4
 697 002e AA01      		.uleb128 .LVL24-.Ltext0
 698 0030 BA01      		.uleb128 .LVL25-.Ltext0
 699 0032 08        		.uleb128 0x8
 700 0033 91        		.byte	0x91
 701 0034 74        		.sleb128 -12
 702 0035 06        		.byte	0x6
 703 0036 20        		.byte	0x20
 704 0037 7A        		.byte	0x7a
 705 0038 00        		.sleb128 0
 706 0039 22        		.byte	0x22
 707 003a 9F        		.byte	0x9f
 708 003b 04        		.byte	0x4
 709 003c BA01      		.uleb128 .LVL25-.Ltext0
 710 003e C001      		.uleb128 .LVL26-.Ltext0
 711 0040 07        		.uleb128 0x7


 712 0041 7A        		.byte	0x7a
 713 0042 00        		.sleb128 0
 714 0043 91        		.byte	0x91
 715 0044 74        		.sleb128 -12
 716 0045 06        		.byte	0x6
 717 0046 1C        		.byte	0x1c
 718 0047 9F        		.byte	0x9f
 719 0048 04        		.byte	0x4
 720 0049 C801      		.uleb128 .LVL27-.Ltext0
 721 004b DE01      		.uleb128 .LVL29-.Ltext0
 722 004d 08        		.uleb128 0x8
 723 004e 91        		.byte	0x91
 724 004f 74        		.sleb128 -12
 725 0050 06        		.byte	0x6
 726 0051 20        		.byte	0x20
 727 0052 7A        		.byte	0x7a
 728 0053 00        		.sleb128 0
 729 0054 22        		.byte	0x22
 730 0055 9F        		.byte	0x9f
 731 0056 04        		.byte	0x4
 732 0057 DE01      		.uleb128 .LVL29-.Ltext0
 733 0059 E601      		.uleb128 .LFE1-.Ltext0
 734 005b 07        		.uleb128 0x7
 735 005c 7A        		.byte	0x7a
 736 005d 00        		.sleb128 0
 737 005e 91        		.byte	0x91
 738 005f 74        		.sleb128 -12
 739 0060 06        		.byte	0x6
 740 0061 1C        		.byte	0x1c
 741 0062 9F        		.byte	0x9f
 742 0063 00        		.byte	0
 743               	.LVUS0:
 744 0064 00        		.uleb128 .LVU10
 745 0065 00        		.uleb128 .LVU16
 746 0066 00        		.uleb128 .LVU16
 747 0067 00        		.uleb128 .LVU24
 748 0068 00        		.uleb128 .LVU25
 749 0069 00        		.uleb128 .LVU26
 750 006a 00        		.uleb128 .LVU26
 751 006b 00        		.uleb128 .LVU34
 752 006c 00        		.uleb128 .LVU35
 753 006d 00        		.uleb128 .LVU39
 754 006e 00        		.uleb128 .LVU39
 755 006f 00        		.uleb128 0
 756               	.LLST0:
 757 0070 04        		.byte	0x4
 758 0071 22        		.uleb128 .LVL4-.Ltext0
 759 0072 36        		.uleb128 .LVL5-.Ltext0
 760 0073 01        		.uleb128 0x1
 761 0074 50        		.byte	0x50
 762 0075 04        		.byte	0x4
 763 0076 36        		.uleb128 .LVL5-.Ltext0
 764 0077 48        		.uleb128 .LVL9-.Ltext0
 765 0078 01        		.uleb128 0x1
 766 0079 52        		.byte	0x52
 767 007a 04        		.byte	0x4
 768 007b 50        		.uleb128 .LVL10-.Ltext0


 769 007c 55        		.uleb128 .LVL11-1-.Ltext0
 770 007d 01        		.uleb128 0x1
 771 007e 50        		.byte	0x50
 772 007f 04        		.byte	0x4
 773 0080 55        		.uleb128 .LVL11-1-.Ltext0
 774 0081 6C        		.uleb128 .LVL14-.Ltext0
 775 0082 01        		.uleb128 0x1
 776 0083 52        		.byte	0x52
 777 0084 04        		.byte	0x4
 778 0085 6E        		.uleb128 .LVL15-.Ltext0
 779 0086 79        		.uleb128 .LVL17-1-.Ltext0
 780 0087 01        		.uleb128 0x1
 781 0088 50        		.byte	0x50
 782 0089 04        		.byte	0x4
 783 008a 79        		.uleb128 .LVL17-1-.Ltext0
 784 008b 9001      		.uleb128 .LFE0-.Ltext0
 785 008d 01        		.uleb128 0x1
 786 008e 52        		.byte	0x52
 787 008f 00        		.byte	0
 788               	.LVUS1:
 789 0090 03        		.uleb128 .LVU5
 790 0091 00        		.uleb128 .LVU8
 791 0092 00        		.uleb128 .LVU8
 792 0093 00        		.uleb128 .LVU21
 793 0094 00        		.uleb128 .LVU21
 794 0095 00        		.uleb128 .LVU22
 795 0096 00        		.uleb128 .LVU25
 796 0097 00        		.uleb128 .LVU32
 797 0098 00        		.uleb128 .LVU32
 798 0099 00        		.uleb128 .LVU34
 799 009a 00        		.uleb128 .LVU34
 800 009b 00        		.uleb128 .LVU35
 801 009c 00        		.uleb128 .LVU35
 802 009d 00        		.uleb128 .LVU38
 803 009e 00        		.uleb128 .LVU38
 804 009f 01        		.uleb128 .LVU42
 805 00a0 01        		.uleb128 .LVU42
 806 00a1 02        		.uleb128 .LVU43
 807 00a2 02        		.uleb128 .LVU43
 808 00a3 00        		.uleb128 .LVU44
 809               	.LLST1:
 810 00a4 04        		.byte	0x4
 811 00a5 0C        		.uleb128 .LVL1-.Ltext0
 812 00a6 1E        		.uleb128 .LVL2-.Ltext0
 813 00a7 02        		.uleb128 0x2
 814 00a8 30        		.byte	0x30
 815 00a9 9F        		.byte	0x9f
 816 00aa 04        		.byte	0x4
 817 00ab 1E        		.uleb128 .LVL2-.Ltext0
 818 00ac 42        		.uleb128 .LVL7-.Ltext0
 819 00ad 01        		.uleb128 0x1
 820 00ae 53        		.byte	0x53
 821 00af 04        		.byte	0x4
 822 00b0 42        		.uleb128 .LVL7-.Ltext0
 823 00b1 44        		.uleb128 .LVL8-.Ltext0
 824 00b2 03        		.uleb128 0x3
 825 00b3 73        		.byte	0x73


 826 00b4 7F        		.sleb128 -1
 827 00b5 9F        		.byte	0x9f
 828 00b6 04        		.byte	0x4
 829 00b7 50        		.uleb128 .LVL10-.Ltext0
 830 00b8 64        		.uleb128 .LVL13-.Ltext0
 831 00b9 01        		.uleb128 0x1
 832 00ba 53        		.byte	0x53
 833 00bb 04        		.byte	0x4
 834 00bc 64        		.uleb128 .LVL13-.Ltext0
 835 00bd 6C        		.uleb128 .LVL14-.Ltext0
 836 00be 03        		.uleb128 0x3
 837 00bf 73        		.byte	0x73
 838 00c0 7F        		.sleb128 -1
 839 00c1 9F        		.byte	0x9f
 840 00c2 04        		.byte	0x4
 841 00c3 6C        		.uleb128 .LVL14-.Ltext0
 842 00c4 6E        		.uleb128 .LVL15-.Ltext0
 843 00c5 03        		.uleb128 0x3
 844 00c6 70        		.byte	0x70
 845 00c7 7F        		.sleb128 -1
 846 00c8 9F        		.byte	0x9f
 847 00c9 04        		.byte	0x4
 848 00ca 6E        		.uleb128 .LVL15-.Ltext0
 849 00cb 74        		.uleb128 .LVL16-.Ltext0
 850 00cc 01        		.uleb128 0x1
 851 00cd 53        		.byte	0x53
 852 00ce 04        		.byte	0x4
 853 00cf 74        		.uleb128 .LVL16-.Ltext0
 854 00d0 8601      		.uleb128 .LVL19-.Ltext0
 855 00d2 03        		.uleb128 0x3
 856 00d3 73        		.byte	0x73
 857 00d4 01        		.sleb128 1
 858 00d5 9F        		.byte	0x9f
 859 00d6 04        		.byte	0x4
 860 00d7 8601      		.uleb128 .LVL19-.Ltext0
 861 00d9 8601      		.uleb128 .LVL19-.Ltext0
 862 00db 01        		.uleb128 0x1
 863 00dc 53        		.byte	0x53
 864 00dd 04        		.byte	0x4
 865 00de 8601      		.uleb128 .LVL19-.Ltext0
 866 00e0 8A01      		.uleb128 .LVL20-.Ltext0
 867 00e2 03        		.uleb128 0x3
 868 00e3 73        		.byte	0x73
 869 00e4 7F        		.sleb128 -1
 870 00e5 9F        		.byte	0x9f
 871 00e6 00        		.byte	0
 872               	.Ldebug_loc3:
 873               		.section	.debug_aranges,"",@progbits
 874 0000 0000 001C 		.long	0x1c
 875 0004 0002      		.word	0x2
 876 0006 0000 0000 		.long	.Ldebug_info0
 877 000a 04        		.byte	0x4
 878 000b 00        		.byte	0
 879 000c 0000      		.word	0
 880 000e 0000      		.word	0
 881 0010 0000 0000 		.long	.Ltext0
 882 0014 0000 00E6 		.long	.Letext0-.Ltext0


 883 0018 0000 0000 		.long	0
 884 001c 0000 0000 		.long	0
 885               		.section	.debug_line,"",@progbits
 886               	.Ldebug_line0:
 887 0000 0000 0114 		.section	.debug_str,"MS",@progbits,1
 887      0003 0000 
 887      0020 0201 
 887      FB0E 0D00 
 887      0101 0101 
 888               	.LASF0:
 889 0000 6F75 7462 		.string	"outbyte"
 889      7974 6500 
 890               	.LASF4:
 891 0008 6E62 7974 		.string	"nbytes"
 891      6573 00
 892               	.LASF9:
 893 000f 7265 6164 		.string	"read"
 893      00
 894               	.LASF8:
 895 0014 7772 6974 		.string	"write"
 895      6500 
 896               	.LASF3:
 897 001a 6368 6172 		.string	"char"
 897      00
 898               	.LASF6:
 899 001f 6373 7973 		.string	"csys68k.c"
 899      3638 6B2E 
 899      6300 
 900               	.LASF5:
 901 0029 474E 5520 		.string	"GNU C17 11.4.0 -mcpu=68000 -msoft-float -g -O2 -fomit-frame-pointer"
 901      4331 3720 
 901      3131 2E34 
 901      2E30 202D 
 901      6D63 7075 
 902               	.LASF2:
 903 006d 756E 7369 		.string	"unsigned char"
 903      676E 6564 
 903      2063 6861 
 903      7200 
 904               	.LASF7:
 905 007b 2F68 6F6D 		.string	"/home/students/9698848454/soft2/section1/mtk"
 905      652F 7374 
 905      7564 656E 
 905      7473 2F39 
 905      3639 3838 
 906               	.LASF1:
 907 00a8 696E 6279 		.string	"inbyte"
 907      7465 00
 908               		.ident	"GCC: (GNU) 11.4.0"




   1               	/* inchrw.s : 中難度Option (link/unlk版) */
   2               	
   3               	    .section .text
   4               	    .global inbyte
   5               	    .even
   6               	    .equ SYSCALL_NUM_GETSTRING, 1
   7               	
   8               	inbyte:
   9               	    /* 1. スタックフレームの作成 (バッファ確保) */
  10               	    /* 旧FP保存 -> FP更新 -> スタック4バイト確保 を1命令で行う */
  11 0000 4E56 FFFC 	    link    %a6, #-4
  12               	
  13               	    /* 2. レジスタの退避 */
  14               	    /* linkの後に行うのが一般的です */
  15 0004 48E7 3000 	    movem.l %d2-%d3, -(%sp)
  16               	
  17               	retry_in:
  18 0008 7001      	    move.l  #SYSCALL_NUM_GETSTRING, %d0
  19 000a 7200      	    move.l  #0, %d1
  20               	
  21               	    /* 3. バッファアドレスの指定 */
  22               	    /* フレームポインタ(%a6)基準で -4 の位置が確保したバッファ */
  23               	    /* lea命令でその「アドレス」を計算してd2に入れる */
  24 000c 41EE FFFC 	    lea     -4(%a6), %a0    /* アドレス -4(%a6) を a0 にロード */
  25 0010 2408      	    move.l  %a0, %d2        /* システムコール引数に設定 */
  26               	
  27 0012 7601      	    move.l  #1, %d3
  28 0014 4E40      	    trap    #0
  29               	
  30 0016 4A80      	    tst.l   %d0
  31 0018 6700 FFEE 	    beq     retry_in
  32               	
  33               	    /* 4. 戻り値の取得 */
  34 001c 7000      	    move.l  #0, %d0
  35 001e 102E FFFC 	    move.b  -4(%a6), %d0    /* フレームポインタ基準でデータ読み出し */
  36               	
  37               	    /* 5. レジスタの復帰 */
  38 0022 4CDF 000C 	    movem.l (%sp)+, %d2-%d3
  39               	
  40               	    /* 6. スタックフレームの破棄 */
  41               	    /* SPを戻す -> 旧FP復帰 を1命令で行う */
  42 0026 4E5E      	    unlk    %a6
  43               	    
  44 0028 4E75      	    rts




   1               	/* mtk_asm.s */
   2               	/* マルチタスクカーネル (アセンブリ言語部分) */
   3               	
   4               	    .section .text
   5               	    .even
   6               	    
   7               	    /* 外部シンボルの定義 */
   8               	    .global first_task
   9               	    .global swtch
  10               	    .global P
  11               	    .global V
  12               	    .global pv_handler
  13               	    .global hard_clock
  14               	    .global init_timer
  15               	
  16               	    /* 外部参照 (C言語の変数・関数) */
  17               	    .extern curr_task
  18               	    .extern next_task
  19               	    .extern ready
  20               	    .extern task_tab
  21               	    .extern p_body
  22               	    .extern v_body
  23               	    .extern addq
  24               	    .extern sched
  25               	
  26               	    /* 定数定義 */
  27               	    .equ TCB_SIZE, 20       /* TCB構造体のサイズ (5要素×4バイト) */
  28               	    .equ TCB_SP_OFFSET, 4   /* stack_ptrのオフセット (2番目の要素) */
  29               	    .equ SYSCALL_NUM_SET_TIMER, 4
  30               	
  31               	/* ==========================================================
  32               	   ユーザタスク起動サブルーチン
  33               	   first_task()
  34               	   C言語の begin_sch() から呼ばれる。ここからは戻らない。
  35               	   ========================================================== */
  36               	first_task:
  37               	    /* 1. 現在のタスク(curr_task)のSSPを回復する */
  38               	    /* TCBのアドレス計算: task_tab + (curr_task * 20) */
  39 0000 2039 0000 	    move.l  curr_task, %d0
  39      0000 
  40 0006 C0FC 0014 	    mulu.w  #TCB_SIZE, %d0
  41 000a 41F9 0000 	    lea     task_tab, %a0
  41      0000 
  42 0010 D1C0      	    add.l   %d0, %a0        /* a0 = &task_tab[curr_task] */
  43               	    
  44 0012 2E68 0004 	    move.l  TCB_SP_OFFSET(%a0), %sp /* SSPを回復 */
  45               	
  46               	    /* 2. USP, レジスタの回復 (図2.8のスタック構造に対応) */
  47 0016 205F      	    move.l  (%sp)+, %a0
  48 0018 4E60      	    move.l  %a0, %usp       /* USP回復 */
  49               	    
  50 001a 4CDF 7FFF 	    movem.l (%sp)+, %d0-%d7/%a0-%a6 /* レジスタ回復 */
  51               	
  52               	    /* 3. ユーザタスクへ移行 */
  53 001e 4E73      	    rte
  54               	
  55               	/* ==========================================================


  56               	   タスクスイッチ関数
  57               	   swtch()
  58               	   sched()でnext_taskが決まった後に呼ばれる。
  59               	   ========================================================== */
  60               	swtch:
  61               	    /* 1. 戻り番地用にSRをスタックに積む (RTEで復帰するため) */
  62 0020 40E7      	    move.w  %sr, -(%sp)
  63               	
  64               	    /* 2. 現在のタスクのコンテキスト保存 */
  65 0022 48E7 FFFE 	    movem.l %d0-%d7/%a0-%a6, -(%sp) /* レジスタ保存 */
  66 0026 4E68      	    move.l  %usp, %a0
  67 0028 2F08      	    move.l  %a0, -(%sp)             /* USP保存 */
  68               	
  69               	    /* 3. 現在のタスクのSSPをTCBに保存 */
  70 002a 2039 0000 	    move.l  curr_task, %d0
  70      0000 
  71 0030 C0FC 0014 	    mulu.w  #TCB_SIZE, %d0
  72 0034 41F9 0000 	    lea     task_tab, %a0
  72      0000 
  73 003a D1C0      	    add.l   %d0, %a0
  74 003c 214F 0004 	    move.l  %sp, TCB_SP_OFFSET(%a0)
  75               	
  76               	    /* 4. タスクの切り替え */
  77 0040 23F9 0000 	    move.l  next_task, curr_task
  77      0000 0000 
  77      0000 
  78               	
  79               	    /* 5. 次のタスクのSSPをTCBから復帰 */
  80 004a 2039 0000 	    move.l  curr_task, %d0
  80      0000 
  81 0050 C0FC 0014 	    mulu.w  #TCB_SIZE, %d0
  82 0054 41F9 0000 	    lea     task_tab, %a0
  82      0000 
  83 005a D1C0      	    add.l   %d0, %a0
  84 005c 2E68 0004 	    move.l  TCB_SP_OFFSET(%a0), %sp
  85               	
  86               	    /* 6. 次のタスクのコンテキスト復帰 */
  87 0060 205F      	    move.l  (%sp)+, %a0
  88 0062 4E60      	    move.l  %a0, %usp               /* USP復帰 */
  89 0064 4CDF 7FFF 	    movem.l (%sp)+, %d0-%d7/%a0-%a6 /* レジスタ復帰 */
  90               	
  91               	    /* 7. 新しいタスクへ (RTE) */
  92 0068 4E73      	    rte
  93               	
  94               	/* ==========================================================
  95               	   システムコール入口 (P, V)
  96               	   C言語から呼ばれる: P(sem_id), V(sem_id)
  97               	   ========================================================== */
  98               	P:
  99 006a 7000      	    move.l  #0, %d0         /* D0 = 0 (P操作を示す) */
 100 006c 222F 0004 	    move.l  4(%sp), %d1     /* D1 = 引数 sem_id */
 101 0070 4E41      	    trap    #1
 102 0072 4E75      	    rts
 103               	
 104               	V:
 105 0074 7001      	    move.l  #1, %d0         /* D0 = 1 (V操作を示す) */
 106 0076 222F 0004 	    move.l  4(%sp), %d1     /* D1 = 引数 sem_id */


 107 007a 4E41      	    trap    #1
 108 007c 4E75      	    rts
 109               	
 110               	/* ==========================================================
 111               	   TRAP #1 割り込みハンドラ
 112               	   pv_handler
 113               	   P, Vシステムコールの実体処理
 114               	   ========================================================== */
 115               	pv_handler:
 116               	    /* 1. レジスタ退避 */
 117 007e 48E7 FFFE 	    movem.l %d0-%d7/%a0-%a6, -(%sp)
 118               	
 119               	    /* 2. 割り込み禁止 (SR操作) */
 120 0082 40E7      	    move.w  %sr, -(%sp)     /* SR退避 */
 121 0084 46FC 2700 	    move.w  #0x2700, %sr    /* 割り込み禁止 (Level 7) */
 122               	
 123               	    /* 3. C関数の呼び出し (p_body or v_body) */
 124 0088 2F01      	    move.l  %d1, -(%sp)     /* 引数 sem_id をプッシュ */
 125               	    
 126 008a 4A80      	    tst.l   %d0             /* D0が0ならP, 1ならV */
 127 008c 6600 000C 	    bne     do_v
 128               	do_p:
 129 0090 4EB9 0000 	    jsr     p_body
 129      0000 
 130 0096 6000 0008 	    bra     pv_end
 131               	do_v:
 132 009a 4EB9 0000 	    jsr     v_body
 132      0000 
 133               	    
 134               	pv_end:
 135 00a0 588F      	    addq.l  #4, %sp         /* 引数除去 */
 136               	
 137               	    /* 4. 割り込み禁止解除 & レジスタ復帰 */
 138 00a2 46DF      	    move.w  (%sp)+, %sr
 139 00a4 4CDF 7FFF 	    movem.l (%sp)+, %d0-%d7/%a0-%a6
 140               	
 141               	    /* 5. 復帰 */
 142 00a8 4E73      	    rte
 143               	
 144               	/* ==========================================================
 145               	   タイマ初期化
 146               	   init_timer()
 147               	   モニタのシステムコールを使ってタイマを設定する
 148               	   ========================================================== */
 149               	init_timer:
 150 00aa 7004      	    move.l  #SYSCALL_NUM_SET_TIMER, %d0
 151 00ac 323C C350 	    move.w  #50000, %d1         /* 割り込み間隔 (適当な値) */
 152 00b0 243C 0000 	    move.l  #hard_clock, %d2    /* ハンドラのアドレス */
 152      0000 
 153 00b6 4E40      	    trap    #0
 154 00b8 4E75      	    rts
 155               	
 156               	/* ==========================================================
 157               	   タイマ割り込みハンドラ
 158               	   hard_clock
 159               	   モニタから呼ばれるため RTS で戻る
 160               	   ========================================================== */


 161               	hard_clock:
 162               	    /* 1. レジスタ退避 (重要: 全レジスタ保存) */
 163 00ba 48E7 FFFE 	    movem.l %d0-%d7/%a0-%a6, -(%sp)
 164               	
 165               	    /* 2. curr_task を ready キューの末尾に追加 (ラウンドロビン) */
 166               	    /* addq(&ready, curr_task) */
 167 00be 2F39 0000 	    move.l  curr_task, -(%sp)   /* 第2引数: id */
 167      0000 
 168 00c4 4879 0000 	    pea     ready               /* 第1引数: *head (&ready) */
 168      0000 
 169 00ca 4EB9 0000 	    jsr     addq
 169      0000 
 170 00d0 508F      	    addq.l  #8, %sp             /* 引数除去 */
 171               	
 172               	    /* 3. 次のタスクを決める */
 173 00d2 4EB9 0000 	    jsr     sched
 173      0000 
 174               	
 175               	    /* 4. タスク切り替え */
 176 00d8 4EBA FF46 	    jsr     swtch
 177               	
 178               	    /* 5. レジスタ復帰 */
 179 00dc 4CDF 7FFF 	    movem.l (%sp)+, %d0-%d7/%a0-%a6
 180               	    
 181 00e0 4E75      	    rts




   1               	#NO_APP
   2               		.file	"mtk_c.c"
   3               		.text
   4               	.Ltext0:
   5               		.cfi_sections	.debug_frame
   6               		.align	2
   7               		.globl	addq
   8               		.type	addq, @function
   9               	addq:
  10               	.LVL0:
  11               	.LFB0:
  12               		.file 1 "mtk_c.c"
   1:mtk_c.c       **** /* mtk_c.c */
   2:mtk_c.c       **** /* マルチタスクカーネル (C言語部分) */
   3:mtk_c.c       **** 
   4:mtk_c.c       **** #define _KERNEL_MAIN_   /* 実体を宣言するために定義 */
   5:mtk_c.c       **** #include "mtk_c.h"
   6:mtk_c.c       **** 
   7:mtk_c.c       **** /* ==========================================================
   8:mtk_c.c       ****    グローバル変数の実体定義
   9:mtk_c.c       ****    ========================================================== */
  10:mtk_c.c       **** TCB_TYPE task_tab[NUMTASK + 1];     /* TCB (ID=1〜5を使用) */
  11:mtk_c.c       **** STACK_TYPE stacks[NUMTASK];         /* スタック (添字0〜4を使用) */
  12:mtk_c.c       **** SEMAPHORE_TYPE semaphore[NUMSEMAPHORE]; /* セマフォ */
  13:mtk_c.c       **** 
  14:mtk_c.c       **** TASK_ID_TYPE ready;      /* 実行待ち行列の先頭ID */
  15:mtk_c.c       **** TASK_ID_TYPE curr_task;  /* 現在実行中のタスクID */
  16:mtk_c.c       **** TASK_ID_TYPE next_task;  /* 次に実行するタスクID (schedで決定) */
  17:mtk_c.c       **** 
  18:mtk_c.c       **** 
  19:mtk_c.c       **** /* 外部関数のプロトタイプ宣言 (アセンブラ関数) */
  20:mtk_c.c       **** extern void pv_handler(); /* mtk_asm.s にある割り込みハンドラ */
  21:mtk_c.c       **** 
  22:mtk_c.c       **** /* ==========================================================
  23:mtk_c.c       ****    キュー操作関数
  24:mtk_c.c       ****    ========================================================== */
  25:mtk_c.c       **** 
  26:mtk_c.c       **** /* addq: キューの最後尾にタスクを追加 [cite: 830] */
  27:mtk_c.c       **** void addq(TASK_ID_TYPE *head, TASK_ID_TYPE id) {
  13               		.loc 1 27 48 view -0
  14               		.cfi_startproc
  15               		.loc 1 27 48 is_stmt 0 view .LVU1
  16 0000 206F 0004 		move.l 4(%sp),%a0
  17 0004 226F 0008 		move.l 8(%sp),%a1
  28:mtk_c.c       ****     TASK_ID_TYPE curr;
  18               		.loc 1 28 5 is_stmt 1 view .LVU2
  29:mtk_c.c       **** 
  30:mtk_c.c       ****     /* キューが空の場合 */
  31:mtk_c.c       ****     if (*head == NULLTASKID) {
  19               		.loc 1 31 5 view .LVU3
  20               		.loc 1 31 9 is_stmt 0 view .LVU4
  21 0008 2010      		move.l (%a0),%d0
  22               		.loc 1 31 8 view .LVU5
  23 000a 673A      		jeq .L6
  24 000c 41F9 0000 		lea task_tab,%a0
  24      0000 
  25               	.L2:


  26               	.LVL1:
  32:mtk_c.c       ****         *head = id;
  33:mtk_c.c       ****     } 
  34:mtk_c.c       ****     else {
  35:mtk_c.c       ****         /* 末尾を探す */
  36:mtk_c.c       ****         curr = *head;
  37:mtk_c.c       ****         while (task_tab[curr].next != NULLTASKID) {
  27               		.loc 1 37 36 is_stmt 1 view .LVU6
  28 0012 2200      		move.l %d0,%d1
  29               		.loc 1 37 30 is_stmt 0 view .LVU7
  30 0014 D080      		add.l %d0,%d0
  31               	.LVL2:
  32               		.loc 1 37 30 view .LVU8
  33 0016 D080      		add.l %d0,%d0
  34 0018 D081      		add.l %d1,%d0
  35 001a D080      		add.l %d0,%d0
  36 001c D080      		add.l %d0,%d0
  37 001e 2030 0810 		move.l 16(%a0,%d0.l),%d0
  38               		.loc 1 37 36 view .LVU9
  39 0022 66EE      		jne .L2
  38:mtk_c.c       ****             curr = task_tab[curr].next;
  39:mtk_c.c       ****         }
  40:mtk_c.c       ****         /* 末尾に繋ぐ */
  41:mtk_c.c       ****         task_tab[curr].next = id;
  40               		.loc 1 41 9 is_stmt 1 view .LVU10
  41               		.loc 1 41 29 is_stmt 0 view .LVU11
  42 0024 2001      		move.l %d1,%d0
  43 0026 D081      		add.l %d1,%d0
  44 0028 D080      		add.l %d0,%d0
  45 002a D081      		add.l %d1,%d0
  46 002c D080      		add.l %d0,%d0
  47 002e D080      		add.l %d0,%d0
  48 0030 2189 0810 		move.l %a1,16(%a0,%d0.l)
  42:mtk_c.c       ****     }
  43:mtk_c.c       ****     
  44:mtk_c.c       ****     /* 新しい末尾のnextは必ずNULL */
  45:mtk_c.c       ****     task_tab[id].next = NULLTASKID;
  49               		.loc 1 45 5 is_stmt 1 view .LVU12
  50               		.loc 1 45 23 is_stmt 0 view .LVU13
  51 0034 2009      		move.l %a1,%d0
  52 0036 D089      		add.l %a1,%d0
  53 0038 D080      		add.l %d0,%d0
  54 003a D089      		add.l %a1,%d0
  55 003c D080      		add.l %d0,%d0
  56 003e D080      		add.l %d0,%d0
  57 0040 42B0 0810 		clr.l 16(%a0,%d0.l)
  46:mtk_c.c       **** }
  58               		.loc 1 46 1 view .LVU14
  59 0044 4E75      		rts
  60               	.LVL3:
  61               	.L6:
  32:mtk_c.c       ****     } 
  62               		.loc 1 32 9 is_stmt 1 view .LVU15
  32:mtk_c.c       ****     } 
  63               		.loc 1 32 15 is_stmt 0 view .LVU16
  64 0046 2089      		move.l %a1,(%a0)
  65 0048 41F9 0000 		lea task_tab,%a0


  65      0000 
  45:mtk_c.c       **** }
  66               		.loc 1 45 5 is_stmt 1 view .LVU17
  45:mtk_c.c       **** }
  67               		.loc 1 45 23 is_stmt 0 view .LVU18
  68 004e 2009      		move.l %a1,%d0
  69 0050 D089      		add.l %a1,%d0
  70 0052 D080      		add.l %d0,%d0
  71 0054 D089      		add.l %a1,%d0
  72 0056 D080      		add.l %d0,%d0
  73 0058 D080      		add.l %d0,%d0
  74 005a 42B0 0810 		clr.l 16(%a0,%d0.l)
  75               		.loc 1 46 1 view .LVU19
  76 005e 4E75      		rts
  77               		.cfi_endproc
  78               	.LFE0:
  79               		.size	addq, .-addq
  80               		.align	2
  81               		.globl	removeq
  82               		.type	removeq, @function
  83               	removeq:
  84               	.LVL4:
  85               	.LFB1:
  47:mtk_c.c       **** 
  48:mtk_c.c       **** /* removeq: キューの先頭からタスクを取り出す [cite: 832] */
  49:mtk_c.c       **** TASK_ID_TYPE removeq(TASK_ID_TYPE *head) {
  86               		.loc 1 49 42 is_stmt 1 view -0
  87               		.cfi_startproc
  88               		.loc 1 49 42 is_stmt 0 view .LVU21
  89 0060 226F 0004 		move.l 4(%sp),%a1
  50:mtk_c.c       ****     TASK_ID_TYPE id;
  90               		.loc 1 50 5 is_stmt 1 view .LVU22
  51:mtk_c.c       **** 
  52:mtk_c.c       ****     if (*head == NULLTASKID) {
  91               		.loc 1 52 5 view .LVU23
  92               		.loc 1 52 9 is_stmt 0 view .LVU24
  93 0064 2011      		move.l (%a1),%d0
  94               		.loc 1 52 8 view .LVU25
  95 0066 6716      		jeq .L9
  53:mtk_c.c       ****         return NULLTASKID;
  54:mtk_c.c       ****     }
  55:mtk_c.c       **** 
  56:mtk_c.c       ****     /* 先頭を取り出す */
  57:mtk_c.c       ****     id = *head;
  96               		.loc 1 57 5 is_stmt 1 view .LVU26
  97               	.LVL5:
  58:mtk_c.c       ****     /* 先頭位置を次にずらす */
  59:mtk_c.c       ****     *head = task_tab[id].next;
  98               		.loc 1 59 5 view .LVU27
  99               		.loc 1 59 25 is_stmt 0 view .LVU28
 100 0068 2040      		move.l %d0,%a0
 101 006a D1C0      		add.l %d0,%a0
 102 006c D1C8      		add.l %a0,%a0
 103 006e D1C0      		add.l %d0,%a0
 104 0070 D1C8      		add.l %a0,%a0
 105 0072 D1C8      		add.l %a0,%a0
 106 0074 D1FC 0000 		add.l #task_tab+16,%a0


 106      0000 
 107               		.loc 1 59 11 view .LVU29
 108 007a 2290      		move.l (%a0),(%a1)
  60:mtk_c.c       ****     
  61:mtk_c.c       ****     /* 取り出したタスクのnextはクリアしておく */
  62:mtk_c.c       ****     task_tab[id].next = NULLTASKID;
 109               		.loc 1 62 5 is_stmt 1 view .LVU30
 110               		.loc 1 62 23 is_stmt 0 view .LVU31
 111 007c 4290      		clr.l (%a0)
  63:mtk_c.c       **** 
  64:mtk_c.c       ****     return id;
 112               		.loc 1 64 5 is_stmt 1 view .LVU32
 113               	.LVL6:
 114               	.L9:
  65:mtk_c.c       **** }
 115               		.loc 1 65 1 is_stmt 0 view .LVU33
 116 007e 4E75      		rts
 117               		.cfi_endproc
 118               	.LFE1:
 119               		.size	removeq, .-removeq
 120               		.align	2
 121               		.globl	sched
 122               		.type	sched, @function
 123               	sched:
 124               	.LFB2:
  66:mtk_c.c       **** 
  67:mtk_c.c       **** /* ==========================================================
  68:mtk_c.c       ****    スケジューリング関数
  69:mtk_c.c       ****    ========================================================== */
  70:mtk_c.c       **** 
  71:mtk_c.c       **** /* sched: 次に実行するタスクを決定する [cite: 843] */
  72:mtk_c.c       **** void sched(void) {
 125               		.loc 1 72 18 is_stmt 1 view -0
 126               		.cfi_startproc
  73:mtk_c.c       ****     /* readyキューから1つ取り出す */
  74:mtk_c.c       ****     next_task = removeq(&ready);
 127               		.loc 1 74 5 view .LVU35
 128               	.LVL7:
 129               	.LBB12:
 130               	.LBI12:
  49:mtk_c.c       ****     TASK_ID_TYPE id;
 131               		.loc 1 49 14 view .LVU36
 132               	.LBB13:
  50:mtk_c.c       **** 
 133               		.loc 1 50 5 view .LVU37
  52:mtk_c.c       ****         return NULLTASKID;
 134               		.loc 1 52 5 view .LVU38
  52:mtk_c.c       ****         return NULLTASKID;
 135               		.loc 1 52 9 is_stmt 0 view .LVU39
 136 0080 2039 0000 		move.l ready,%d0
 136      0000 
  52:mtk_c.c       ****         return NULLTASKID;
 137               		.loc 1 52 8 view .LVU40
 138 0086 6722      		jeq .L18
  57:mtk_c.c       ****     /* 先頭位置を次にずらす */
 139               		.loc 1 57 5 is_stmt 1 view .LVU41
 140               	.LVL8:


  59:mtk_c.c       ****     
 141               		.loc 1 59 5 view .LVU42
  59:mtk_c.c       ****     
 142               		.loc 1 59 25 is_stmt 0 view .LVU43
 143 0088 2040      		move.l %d0,%a0
 144 008a D1C0      		add.l %d0,%a0
 145 008c D1C8      		add.l %a0,%a0
 146 008e D1C0      		add.l %d0,%a0
 147 0090 D1C8      		add.l %a0,%a0
 148 0092 D1C8      		add.l %a0,%a0
 149 0094 D1FC 0000 		add.l #task_tab+16,%a0
 149      0000 
  59:mtk_c.c       ****     
 150               		.loc 1 59 11 view .LVU44
 151 009a 23D0 0000 		move.l (%a0),ready
 151      0000 
  62:mtk_c.c       **** 
 152               		.loc 1 62 5 is_stmt 1 view .LVU45
  62:mtk_c.c       **** 
 153               		.loc 1 62 23 is_stmt 0 view .LVU46
 154 00a0 4290      		clr.l (%a0)
  64:mtk_c.c       **** }
 155               		.loc 1 64 5 is_stmt 1 view .LVU47
 156               	.LVL9:
  64:mtk_c.c       **** }
 157               		.loc 1 64 5 is_stmt 0 view .LVU48
 158               	.LBE13:
 159               	.LBE12:
 160               		.loc 1 74 15 view .LVU49
 161 00a2 23C0 0000 		move.l %d0,next_task
 161      0000 
  75:mtk_c.c       **** 
  76:mtk_c.c       ****     /* 実行できるタスクがなければ無限ループ (アイドル状態) */
  77:mtk_c.c       ****     if (next_task == NULLTASKID) {
 162               		.loc 1 77 5 is_stmt 1 view .LVU50
  78:mtk_c.c       ****         while(1);
  79:mtk_c.c       ****     }
  80:mtk_c.c       **** }
 163               		.loc 1 80 1 is_stmt 0 view .LVU51
 164 00a8 4E75      		rts
 165               	.LVL10:
 166               	.L18:
  78:mtk_c.c       ****         while(1);
 167               		.loc 1 78 9 is_stmt 1 discriminator 1 view .LVU52
  78:mtk_c.c       ****         while(1);
 168               		.loc 1 78 14 discriminator 1 view .LVU53
  78:mtk_c.c       ****         while(1);
 169               		.loc 1 78 9 discriminator 1 view .LVU54
  78:mtk_c.c       ****         while(1);
 170               		.loc 1 78 14 discriminator 1 view .LVU55
 171 00aa 60FE      		jra .L18
 172               		.cfi_endproc
 173               	.LFE2:
 174               		.size	sched, .-sched
 175               		.align	2
 176               		.globl	sleep
 177               		.type	sleep, @function


 178               	sleep:
 179               	.LVL11:
 180               	.LFB3:
  81:mtk_c.c       **** 
  82:mtk_c.c       **** /* ==========================================================
  83:mtk_c.c       ****    セマフォ操作 (P/V)
  84:mtk_c.c       ****    ========================================================== */
  85:mtk_c.c       **** 
  86:mtk_c.c       **** /* sleep: 現在のタスクを待ち行列に入れ、タスク切り替えを行う [cite: 846] *
  87:mtk_c.c       **** void sleep(int ch) {
 181               		.loc 1 87 20 view -0
 182               		.cfi_startproc
 183               		.loc 1 87 20 is_stmt 0 view .LVU57
 184 00ac 222F 0004 		move.l 4(%sp),%d1
  88:mtk_c.c       ****     /* 指定されたセマフォの待ち行列に追加 */
  89:mtk_c.c       ****     addq(&semaphore[ch].task_list, curr_task);
 185               		.loc 1 89 5 is_stmt 1 view .LVU58
 186 00b0 2279 0000 		move.l curr_task,%a1
 186      0000 
 187               	.LVL12:
 188               	.LBB20:
 189               	.LBI20:
  27:mtk_c.c       ****     TASK_ID_TYPE curr;
 190               		.loc 1 27 6 view .LVU59
 191               	.LBB21:
  28:mtk_c.c       **** 
 192               		.loc 1 28 5 view .LVU60
  31:mtk_c.c       ****         *head = id;
 193               		.loc 1 31 5 view .LVU61
  31:mtk_c.c       ****         *head = id;
 194               		.loc 1 31 9 is_stmt 0 view .LVU62
 195 00b6 2001      		move.l %d1,%d0
 196 00b8 D081      		add.l %d1,%d0
 197 00ba D081      		add.l %d1,%d0
 198 00bc D080      		add.l %d0,%d0
 199 00be D080      		add.l %d0,%d0
 200 00c0 2040      		move.l %d0,%a0
 201 00c2 D1FC 0000 		add.l #semaphore+8,%a0
 201      0000 
 202 00c8 2010      		move.l (%a0),%d0
  31:mtk_c.c       ****         *head = id;
 203               		.loc 1 31 8 view .LVU63
 204 00ca 6764      		jeq .L30
 205 00cc 41F9 0000 		lea task_tab,%a0
 205      0000 
 206               	.LVL13:
 207               	.L23:
  37:mtk_c.c       ****             curr = task_tab[curr].next;
 208               		.loc 1 37 36 is_stmt 1 view .LVU64
 209 00d2 2200      		move.l %d0,%d1
  37:mtk_c.c       ****             curr = task_tab[curr].next;
 210               		.loc 1 37 30 is_stmt 0 view .LVU65
 211 00d4 D080      		add.l %d0,%d0
 212               	.LVL14:
  37:mtk_c.c       ****             curr = task_tab[curr].next;
 213               		.loc 1 37 30 view .LVU66
 214 00d6 D080      		add.l %d0,%d0


 215 00d8 D081      		add.l %d1,%d0
 216 00da D080      		add.l %d0,%d0
 217 00dc D080      		add.l %d0,%d0
 218 00de 2030 0810 		move.l 16(%a0,%d0.l),%d0
  37:mtk_c.c       ****             curr = task_tab[curr].next;
 219               		.loc 1 37 36 view .LVU67
 220 00e2 66EE      		jne .L23
  41:mtk_c.c       ****     }
 221               		.loc 1 41 9 is_stmt 1 view .LVU68
  41:mtk_c.c       ****     }
 222               		.loc 1 41 29 is_stmt 0 view .LVU69
 223 00e4 2001      		move.l %d1,%d0
 224 00e6 D081      		add.l %d1,%d0
 225 00e8 D080      		add.l %d0,%d0
 226 00ea D081      		add.l %d1,%d0
 227 00ec D080      		add.l %d0,%d0
 228 00ee D080      		add.l %d0,%d0
 229 00f0 2189 0810 		move.l %a1,16(%a0,%d0.l)
  45:mtk_c.c       **** }
 230               		.loc 1 45 5 is_stmt 1 view .LVU70
  45:mtk_c.c       **** }
 231               		.loc 1 45 23 is_stmt 0 view .LVU71
 232 00f4 2009      		move.l %a1,%d0
 233 00f6 D089      		add.l %a1,%d0
 234 00f8 D080      		add.l %d0,%d0
 235 00fa D089      		add.l %a1,%d0
 236 00fc D080      		add.l %d0,%d0
 237 00fe D080      		add.l %d0,%d0
 238 0100 42B0 0810 		clr.l 16(%a0,%d0.l)
 239               	.LVL15:
  45:mtk_c.c       **** }
 240               		.loc 1 45 23 view .LVU72
 241               	.LBE21:
 242               	.LBE20:
  90:mtk_c.c       **** 
  91:mtk_c.c       ****     /* 次のタスクを決める */
  92:mtk_c.c       ****     sched();
 243               		.loc 1 92 5 is_stmt 1 view .LVU73
 244               	.LBB23:
 245               	.LBI23:
  72:mtk_c.c       ****     /* readyキューから1つ取り出す */
 246               		.loc 1 72 6 view .LVU74
 247               	.LBB24:
  74:mtk_c.c       **** 
 248               		.loc 1 74 5 view .LVU75
 249               	.LBB25:
 250               	.LBI25:
  49:mtk_c.c       ****     TASK_ID_TYPE id;
 251               		.loc 1 49 14 view .LVU76
 252               	.LBB26:
  50:mtk_c.c       **** 
 253               		.loc 1 50 5 view .LVU77
  52:mtk_c.c       ****         return NULLTASKID;
 254               		.loc 1 52 5 view .LVU78
  52:mtk_c.c       ****         return NULLTASKID;
 255               		.loc 1 52 9 is_stmt 0 view .LVU79
 256 0104 2239 0000 		move.l ready,%d1


 256      0000 
  52:mtk_c.c       ****         return NULLTASKID;
 257               		.loc 1 52 8 view .LVU80
 258 010a 6744      		jeq .L34
 259               	.L31:
  57:mtk_c.c       ****     /* 先頭位置を次にずらす */
 260               		.loc 1 57 5 is_stmt 1 view .LVU81
 261               	.LVL16:
  59:mtk_c.c       ****     
 262               		.loc 1 59 5 view .LVU82
  59:mtk_c.c       ****     
 263               		.loc 1 59 25 is_stmt 0 view .LVU83
 264 010c 2001      		move.l %d1,%d0
 265 010e D081      		add.l %d1,%d0
 266 0110 D080      		add.l %d0,%d0
 267 0112 D081      		add.l %d1,%d0
 268 0114 D080      		add.l %d0,%d0
 269 0116 D080      		add.l %d0,%d0
 270 0118 41F0 0810 		lea 16(%a0,%d0.l),%a0
  59:mtk_c.c       ****     
 271               		.loc 1 59 11 view .LVU84
 272 011c 23D0 0000 		move.l (%a0),ready
 272      0000 
  62:mtk_c.c       **** 
 273               		.loc 1 62 5 is_stmt 1 view .LVU85
  62:mtk_c.c       **** 
 274               		.loc 1 62 23 is_stmt 0 view .LVU86
 275 0122 4290      		clr.l (%a0)
  64:mtk_c.c       **** }
 276               		.loc 1 64 5 is_stmt 1 view .LVU87
 277               	.LVL17:
  64:mtk_c.c       **** }
 278               		.loc 1 64 5 is_stmt 0 view .LVU88
 279               	.LBE26:
 280               	.LBE25:
  74:mtk_c.c       **** 
 281               		.loc 1 74 15 view .LVU89
 282 0124 23C1 0000 		move.l %d1,next_task
 282      0000 
  77:mtk_c.c       ****         while(1);
 283               		.loc 1 77 5 is_stmt 1 view .LVU90
  77:mtk_c.c       ****         while(1);
 284               		.loc 1 77 5 is_stmt 0 view .LVU91
 285               	.LBE24:
 286               	.LBE23:
  93:mtk_c.c       **** 
  94:mtk_c.c       ****     /* コンテキストスイッチ (アセンブラ関数) */
  95:mtk_c.c       ****     swtch();
 287               		.loc 1 95 5 is_stmt 1 view .LVU92
  96:mtk_c.c       **** }
 288               		.loc 1 96 1 is_stmt 0 view .LVU93
  95:mtk_c.c       **** }
 289               		.loc 1 95 5 view .LVU94
 290 012a 4EF9 0000 		jra swtch
 290      0000 
 291               	.LVL18:
 292               	.L30:


 293               	.LBB30:
 294               	.LBB22:
  32:mtk_c.c       ****     } 
 295               		.loc 1 32 9 is_stmt 1 view .LVU95
  32:mtk_c.c       ****     } 
 296               		.loc 1 32 15 is_stmt 0 view .LVU96
 297 0130 2089      		move.l %a1,(%a0)
 298 0132 41F9 0000 		lea task_tab,%a0
 298      0000 
  45:mtk_c.c       **** }
 299               		.loc 1 45 5 is_stmt 1 view .LVU97
  45:mtk_c.c       **** }
 300               		.loc 1 45 23 is_stmt 0 view .LVU98
 301 0138 2009      		move.l %a1,%d0
 302 013a D089      		add.l %a1,%d0
 303 013c D080      		add.l %d0,%d0
 304 013e D089      		add.l %a1,%d0
 305 0140 D080      		add.l %d0,%d0
 306 0142 D080      		add.l %d0,%d0
 307 0144 42B0 0810 		clr.l 16(%a0,%d0.l)
 308               	.LVL19:
  45:mtk_c.c       **** }
 309               		.loc 1 45 23 view .LVU99
 310               	.LBE22:
 311               	.LBE30:
  92:mtk_c.c       **** 
 312               		.loc 1 92 5 is_stmt 1 view .LVU100
 313               	.LBB31:
  72:mtk_c.c       ****     /* readyキューから1つ取り出す */
 314               		.loc 1 72 6 view .LVU101
 315               	.LBB29:
  74:mtk_c.c       **** 
 316               		.loc 1 74 5 view .LVU102
 317               	.LBB28:
  49:mtk_c.c       ****     TASK_ID_TYPE id;
 318               		.loc 1 49 14 view .LVU103
 319               	.LBB27:
  50:mtk_c.c       **** 
 320               		.loc 1 50 5 view .LVU104
  52:mtk_c.c       ****         return NULLTASKID;
 321               		.loc 1 52 5 view .LVU105
  52:mtk_c.c       ****         return NULLTASKID;
 322               		.loc 1 52 9 is_stmt 0 view .LVU106
 323 0148 2239 0000 		move.l ready,%d1
 323      0000 
  52:mtk_c.c       ****         return NULLTASKID;
 324               		.loc 1 52 8 view .LVU107
 325 014e 66BC      		jne .L31
 326               	.L34:
 327               	.LVL20:
  52:mtk_c.c       ****         return NULLTASKID;
 328               		.loc 1 52 8 view .LVU108
 329               	.LBE27:
 330               	.LBE28:
  77:mtk_c.c       ****         while(1);
 331               		.loc 1 77 5 is_stmt 1 view .LVU109
 332               	.L25:


  78:mtk_c.c       ****     }
 333               		.loc 1 78 9 view .LVU110
  78:mtk_c.c       ****     }
 334               		.loc 1 78 14 view .LVU111
  78:mtk_c.c       ****     }
 335               		.loc 1 78 9 view .LVU112
  78:mtk_c.c       ****     }
 336               		.loc 1 78 14 view .LVU113
 337 0150 60FE      		jra .L25
 338               	.LBE29:
 339               	.LBE31:
 340               		.cfi_endproc
 341               	.LFE3:
 342               		.size	sleep, .-sleep
 343               		.align	2
 344               		.globl	wakeup
 345               		.type	wakeup, @function
 346               	wakeup:
 347               	.LVL21:
 348               	.LFB4:
  97:mtk_c.c       **** 
  98:mtk_c.c       **** /* wakeup: 待ち行列からタスクを起こしてreadyキューに戻す [cite: 850] */
  99:mtk_c.c       **** void wakeup(int ch) {
 349               		.loc 1 99 21 view -0
 350               		.cfi_startproc
 351               		.loc 1 99 21 is_stmt 0 view .LVU115
 352 0152 48E7 2030 		movem.l #8240,-(%sp)
 353               		.cfi_def_cfa_offset 16
 354               		.cfi_offset 2, -16
 355               		.cfi_offset 10, -12
 356               		.cfi_offset 11, -8
 357 0156 222F 0010 		move.l 16(%sp),%d1
 100:mtk_c.c       ****     TASK_ID_TYPE id;
 358               		.loc 1 100 5 is_stmt 1 view .LVU116
 101:mtk_c.c       **** 
 102:mtk_c.c       ****     /* セマフォの待ち行列から1つ取り出す */
 103:mtk_c.c       ****     id = removeq(&semaphore[ch].task_list);
 359               		.loc 1 103 5 view .LVU117
 360               	.LVL22:
 361               	.LBB38:
 362               	.LBI38:
  49:mtk_c.c       ****     TASK_ID_TYPE id;
 363               		.loc 1 49 14 view .LVU118
 364               	.LBB39:
  50:mtk_c.c       **** 
 365               		.loc 1 50 5 view .LVU119
  52:mtk_c.c       ****         return NULLTASKID;
 366               		.loc 1 52 5 view .LVU120
  52:mtk_c.c       ****         return NULLTASKID;
 367               		.loc 1 52 9 is_stmt 0 view .LVU121
 368 015a 2001      		move.l %d1,%d0
 369 015c D081      		add.l %d1,%d0
 370 015e D081      		add.l %d1,%d0
 371 0160 D080      		add.l %d0,%d0
 372 0162 D080      		add.l %d0,%d0
 373 0164 2040      		move.l %d0,%a0
 374 0166 D1FC 0000 		add.l #semaphore+8,%a0


 374      0000 
 375 016c 2410      		move.l (%a0),%d2
  52:mtk_c.c       ****         return NULLTASKID;
 376               		.loc 1 52 8 view .LVU122
 377 016e 6736      		jeq .L35
  57:mtk_c.c       ****     /* 先頭位置を次にずらす */
 378               		.loc 1 57 5 is_stmt 1 view .LVU123
 379               	.LVL23:
  59:mtk_c.c       ****     
 380               		.loc 1 59 5 view .LVU124
  59:mtk_c.c       ****     
 381               		.loc 1 59 25 is_stmt 0 view .LVU125
 382 0170 45F9 0000 		lea task_tab,%a2
 382      0000 
 383 0176 2242      		move.l %d2,%a1
 384 0178 D3C2      		add.l %d2,%a1
 385 017a 2009      		move.l %a1,%d0
 386 017c D089      		add.l %a1,%d0
 387 017e D082      		add.l %d2,%d0
 388 0180 D080      		add.l %d0,%d0
 389 0182 D080      		add.l %d0,%d0
 390 0184 47F2 0810 		lea 16(%a2,%d0.l),%a3
  59:mtk_c.c       ****     
 391               		.loc 1 59 11 view .LVU126
 392 0188 2093      		move.l (%a3),(%a0)
  62:mtk_c.c       **** 
 393               		.loc 1 62 5 is_stmt 1 view .LVU127
  62:mtk_c.c       **** 
 394               		.loc 1 62 23 is_stmt 0 view .LVU128
 395 018a 4293      		clr.l (%a3)
  64:mtk_c.c       **** }
 396               		.loc 1 64 5 is_stmt 1 view .LVU129
 397               	.LVL24:
  64:mtk_c.c       **** }
 398               		.loc 1 64 5 is_stmt 0 view .LVU130
 399               	.LBE39:
 400               	.LBE38:
 104:mtk_c.c       **** 
 105:mtk_c.c       ****     /* タスクがあればreadyキューへ移動 (実行可能状態へ) */
 106:mtk_c.c       ****     if (id != NULLTASKID) {
 401               		.loc 1 106 5 is_stmt 1 view .LVU131
 107:mtk_c.c       ****         addq(&ready, id);
 402               		.loc 1 107 9 view .LVU132
 403               	.LBB40:
 404               	.LBI40:
  27:mtk_c.c       ****     TASK_ID_TYPE curr;
 405               		.loc 1 27 6 view .LVU133
 406               	.LBB41:
  28:mtk_c.c       **** 
 407               		.loc 1 28 5 view .LVU134
  31:mtk_c.c       ****         *head = id;
 408               		.loc 1 31 5 view .LVU135
  31:mtk_c.c       ****         *head = id;
 409               		.loc 1 31 9 is_stmt 0 view .LVU136
 410 018c 2039 0000 		move.l ready,%d0
 410      0000 
  31:mtk_c.c       ****         *head = id;


 411               		.loc 1 31 8 view .LVU137
 412 0192 6618      		jne .L37
  32:mtk_c.c       ****     } 
 413               		.loc 1 32 9 is_stmt 1 view .LVU138
  32:mtk_c.c       ****     } 
 414               		.loc 1 32 15 is_stmt 0 view .LVU139
 415 0194 23C2 0000 		move.l %d2,ready
 415      0000 
  45:mtk_c.c       **** }
 416               		.loc 1 45 5 is_stmt 1 view .LVU140
  45:mtk_c.c       **** }
 417               		.loc 1 45 23 is_stmt 0 view .LVU141
 418 019a D3C9      		add.l %a1,%a1
 419 019c D3C2      		add.l %d2,%a1
 420 019e D3C9      		add.l %a1,%a1
 421 01a0 D3C9      		add.l %a1,%a1
 422 01a2 42B2 9810 		clr.l 16(%a2,%a1.l)
 423               	.LVL25:
 424               	.L35:
  45:mtk_c.c       **** }
 425               		.loc 1 45 23 view .LVU142
 426               	.LBE41:
 427               	.LBE40:
 108:mtk_c.c       ****     }
 109:mtk_c.c       **** }
 428               		.loc 1 109 1 view .LVU143
 429 01a6 4CDF 0C04 		movem.l (%sp)+,#3076
 430 01aa 4E75      		rts
 431               	.LVL26:
 432               	.L37:
 433               	.LBB43:
 434               	.LBB42:
  37:mtk_c.c       ****             curr = task_tab[curr].next;
 435               		.loc 1 37 36 is_stmt 1 view .LVU144
 436 01ac 2200      		move.l %d0,%d1
  37:mtk_c.c       ****             curr = task_tab[curr].next;
 437               		.loc 1 37 30 is_stmt 0 view .LVU145
 438 01ae D080      		add.l %d0,%d0
 439               	.LVL27:
  37:mtk_c.c       ****             curr = task_tab[curr].next;
 440               		.loc 1 37 30 view .LVU146
 441 01b0 D080      		add.l %d0,%d0
 442 01b2 D081      		add.l %d1,%d0
 443 01b4 D080      		add.l %d0,%d0
 444 01b6 D080      		add.l %d0,%d0
 445 01b8 2032 0810 		move.l 16(%a2,%d0.l),%d0
  37:mtk_c.c       ****             curr = task_tab[curr].next;
 446               		.loc 1 37 36 view .LVU147
 447 01bc 66EE      		jne .L37
  41:mtk_c.c       ****     }
 448               		.loc 1 41 9 is_stmt 1 view .LVU148
  41:mtk_c.c       ****     }
 449               		.loc 1 41 29 is_stmt 0 view .LVU149
 450 01be 2001      		move.l %d1,%d0
 451 01c0 D081      		add.l %d1,%d0
 452 01c2 D080      		add.l %d0,%d0
 453 01c4 D081      		add.l %d1,%d0


 454 01c6 D080      		add.l %d0,%d0
 455 01c8 D080      		add.l %d0,%d0
 456 01ca 2582 0810 		move.l %d2,16(%a2,%d0.l)
  45:mtk_c.c       **** }
 457               		.loc 1 45 5 is_stmt 1 view .LVU150
  45:mtk_c.c       **** }
 458               		.loc 1 45 23 is_stmt 0 view .LVU151
 459 01ce D3C9      		add.l %a1,%a1
 460 01d0 D3C2      		add.l %d2,%a1
 461 01d2 D3C9      		add.l %a1,%a1
 462 01d4 D3C9      		add.l %a1,%a1
 463 01d6 42B2 9810 		clr.l 16(%a2,%a1.l)
 464               	.LVL28:
  45:mtk_c.c       **** }
 465               		.loc 1 45 23 view .LVU152
 466 01da 60CA      		jra .L35
 467               	.LBE42:
 468               	.LBE43:
 469               		.cfi_endproc
 470               	.LFE4:
 471               		.size	wakeup, .-wakeup
 472               		.align	2
 473               		.globl	p_body
 474               		.type	p_body, @function
 475               	p_body:
 476               	.LVL29:
 477               	.LFB5:
 110:mtk_c.c       **** 
 111:mtk_c.c       **** /* p_body: P操作 (count--) [cite: 834] */
 112:mtk_c.c       **** void p_body(int sem_id) {
 478               		.loc 1 112 25 is_stmt 1 view -0
 479               		.cfi_startproc
 480               		.loc 1 112 25 is_stmt 0 view .LVU154
 481 01dc 222F 0004 		move.l 4(%sp),%d1
 113:mtk_c.c       ****     semaphore[sem_id].count--;
 482               		.loc 1 113 5 is_stmt 1 view .LVU155
 483               		.loc 1 113 22 is_stmt 0 view .LVU156
 484 01e0 41F9 0000 		lea semaphore,%a0
 484      0000 
 485 01e6 2001      		move.l %d1,%d0
 486 01e8 D081      		add.l %d1,%d0
 487 01ea D081      		add.l %d1,%d0
 488 01ec D080      		add.l %d0,%d0
 489 01ee D080      		add.l %d0,%d0
 490               		.loc 1 113 28 view .LVU157
 491 01f0 2230 0800 		move.l (%a0,%d0.l),%d1
 492 01f4 5381      		subq.l #1,%d1
 493 01f6 2181 0800 		move.l %d1,(%a0,%d0.l)
 114:mtk_c.c       ****     if (semaphore[sem_id].count < 0) {
 494               		.loc 1 114 5 is_stmt 1 view .LVU158
 495               		.loc 1 114 8 is_stmt 0 view .LVU159
 496 01fa 6B02      		jmi .L59
 115:mtk_c.c       ****         /* 資源がないので寝る */
 116:mtk_c.c       ****         sleep(sem_id);
 117:mtk_c.c       ****     }
 118:mtk_c.c       **** }
 497               		.loc 1 118 1 view .LVU160


 498 01fc 4E75      		rts
 499               	.L59:
 116:mtk_c.c       ****     }
 500               		.loc 1 116 9 is_stmt 1 view .LVU161
 501               	.LVL30:
 502               	.LBB52:
 503               	.LBI52:
  87:mtk_c.c       ****     /* 指定されたセマフォの待ち行列に追加 */
 504               		.loc 1 87 6 view .LVU162
 505               	.LBB53:
  89:mtk_c.c       **** 
 506               		.loc 1 89 5 view .LVU163
 507 01fe 2279 0000 		move.l curr_task,%a1
 507      0000 
 508               	.LVL31:
 509               	.LBB54:
 510               	.LBI54:
  27:mtk_c.c       ****     TASK_ID_TYPE curr;
 511               		.loc 1 27 6 view .LVU164
 512               	.LBB55:
  28:mtk_c.c       **** 
 513               		.loc 1 28 5 view .LVU165
  31:mtk_c.c       ****         *head = id;
 514               		.loc 1 31 5 view .LVU166
  31:mtk_c.c       ****         *head = id;
 515               		.loc 1 31 9 is_stmt 0 view .LVU167
 516 0204 41F0 0808 		lea 8(%a0,%d0.l),%a0
 517 0208 2010      		move.l (%a0),%d0
  31:mtk_c.c       ****         *head = id;
 518               		.loc 1 31 8 view .LVU168
 519 020a 6644      		jne .L60
  32:mtk_c.c       ****     } 
 520               		.loc 1 32 9 is_stmt 1 view .LVU169
  32:mtk_c.c       ****     } 
 521               		.loc 1 32 15 is_stmt 0 view .LVU170
 522 020c 2089      		move.l %a1,(%a0)
 523 020e 41F9 0000 		lea task_tab,%a0
 523      0000 
  45:mtk_c.c       **** }
 524               		.loc 1 45 5 is_stmt 1 view .LVU171
  45:mtk_c.c       **** }
 525               		.loc 1 45 23 is_stmt 0 view .LVU172
 526 0214 2009      		move.l %a1,%d0
 527 0216 D089      		add.l %a1,%d0
 528 0218 D080      		add.l %d0,%d0
 529 021a D089      		add.l %a1,%d0
 530 021c D080      		add.l %d0,%d0
 531 021e D080      		add.l %d0,%d0
 532 0220 42B0 0810 		clr.l 16(%a0,%d0.l)
 533               	.LVL32:
  45:mtk_c.c       **** }
 534               		.loc 1 45 23 view .LVU173
 535               	.LBE55:
 536               	.LBE54:
  92:mtk_c.c       **** 
 537               		.loc 1 92 5 is_stmt 1 view .LVU174
 538               	.LBB57:


 539               	.LBI57:
  72:mtk_c.c       ****     /* readyキューから1つ取り出す */
 540               		.loc 1 72 6 view .LVU175
 541               	.LBB58:
  74:mtk_c.c       **** 
 542               		.loc 1 74 5 view .LVU176
 543               	.LBB59:
 544               	.LBI59:
  49:mtk_c.c       ****     TASK_ID_TYPE id;
 545               		.loc 1 49 14 view .LVU177
 546               	.LBB60:
  50:mtk_c.c       **** 
 547               		.loc 1 50 5 view .LVU178
  52:mtk_c.c       ****         return NULLTASKID;
 548               		.loc 1 52 5 view .LVU179
  52:mtk_c.c       ****         return NULLTASKID;
 549               		.loc 1 52 9 is_stmt 0 view .LVU180
 550 0224 2239 0000 		move.l ready,%d1
 550      0000 
  52:mtk_c.c       ****         return NULLTASKID;
 551               		.loc 1 52 8 view .LVU181
 552 022a 6764      		jeq .L61
 553               	.L56:
  57:mtk_c.c       ****     /* 先頭位置を次にずらす */
 554               		.loc 1 57 5 is_stmt 1 view .LVU182
 555               	.LVL33:
  59:mtk_c.c       ****     
 556               		.loc 1 59 5 view .LVU183
  59:mtk_c.c       ****     
 557               		.loc 1 59 25 is_stmt 0 view .LVU184
 558 022c 2001      		move.l %d1,%d0
 559 022e D081      		add.l %d1,%d0
 560 0230 D080      		add.l %d0,%d0
 561 0232 D081      		add.l %d1,%d0
 562 0234 D080      		add.l %d0,%d0
 563 0236 D080      		add.l %d0,%d0
 564 0238 41F0 0810 		lea 16(%a0,%d0.l),%a0
  59:mtk_c.c       ****     
 565               		.loc 1 59 11 view .LVU185
 566 023c 23D0 0000 		move.l (%a0),ready
 566      0000 
  62:mtk_c.c       **** 
 567               		.loc 1 62 5 is_stmt 1 view .LVU186
  62:mtk_c.c       **** 
 568               		.loc 1 62 23 is_stmt 0 view .LVU187
 569 0242 4290      		clr.l (%a0)
  64:mtk_c.c       **** }
 570               		.loc 1 64 5 is_stmt 1 view .LVU188
 571               	.LVL34:
  64:mtk_c.c       **** }
 572               		.loc 1 64 5 is_stmt 0 view .LVU189
 573               	.LBE60:
 574               	.LBE59:
  74:mtk_c.c       **** 
 575               		.loc 1 74 15 view .LVU190
 576 0244 23C1 0000 		move.l %d1,next_task
 576      0000 


  77:mtk_c.c       ****         while(1);
 577               		.loc 1 77 5 is_stmt 1 view .LVU191
  77:mtk_c.c       ****         while(1);
 578               		.loc 1 77 5 is_stmt 0 view .LVU192
 579               	.LBE58:
 580               	.LBE57:
  95:mtk_c.c       **** }
 581               		.loc 1 95 5 is_stmt 1 view .LVU193
 582               	.LBE53:
 583               	.LBE52:
 584               		.loc 1 118 1 is_stmt 0 view .LVU194
 585               	.LBB67:
 586               	.LBB66:
  95:mtk_c.c       **** }
 587               		.loc 1 95 5 view .LVU195
 588 024a 4EF9 0000 		jra swtch
 588      0000 
 589               	.LVL35:
 590               	.L60:
  95:mtk_c.c       **** }
 591               		.loc 1 95 5 view .LVU196
 592 0250 41F9 0000 		lea task_tab,%a0
 592      0000 
 593               	.L48:
 594               	.LVL36:
 595               	.LBB64:
 596               	.LBB56:
  37:mtk_c.c       ****             curr = task_tab[curr].next;
 597               		.loc 1 37 36 is_stmt 1 view .LVU197
 598 0256 2200      		move.l %d0,%d1
  37:mtk_c.c       ****             curr = task_tab[curr].next;
 599               		.loc 1 37 30 is_stmt 0 view .LVU198
 600 0258 D080      		add.l %d0,%d0
 601               	.LVL37:
  37:mtk_c.c       ****             curr = task_tab[curr].next;
 602               		.loc 1 37 30 view .LVU199
 603 025a D080      		add.l %d0,%d0
 604 025c D081      		add.l %d1,%d0
 605 025e D080      		add.l %d0,%d0
 606 0260 D080      		add.l %d0,%d0
 607 0262 2030 0810 		move.l 16(%a0,%d0.l),%d0
  37:mtk_c.c       ****             curr = task_tab[curr].next;
 608               		.loc 1 37 36 view .LVU200
 609 0266 66EE      		jne .L48
  41:mtk_c.c       ****     }
 610               		.loc 1 41 9 is_stmt 1 view .LVU201
  41:mtk_c.c       ****     }
 611               		.loc 1 41 29 is_stmt 0 view .LVU202
 612 0268 2001      		move.l %d1,%d0
 613 026a D081      		add.l %d1,%d0
 614 026c D080      		add.l %d0,%d0
 615 026e D081      		add.l %d1,%d0
 616 0270 D080      		add.l %d0,%d0
 617 0272 D080      		add.l %d0,%d0
 618 0274 2189 0810 		move.l %a1,16(%a0,%d0.l)
  45:mtk_c.c       **** }
 619               		.loc 1 45 5 is_stmt 1 view .LVU203


  45:mtk_c.c       **** }
 620               		.loc 1 45 23 is_stmt 0 view .LVU204
 621 0278 2009      		move.l %a1,%d0
 622 027a D089      		add.l %a1,%d0
 623 027c D080      		add.l %d0,%d0
 624 027e D089      		add.l %a1,%d0
 625 0280 D080      		add.l %d0,%d0
 626 0282 D080      		add.l %d0,%d0
 627 0284 42B0 0810 		clr.l 16(%a0,%d0.l)
 628               	.LVL38:
  45:mtk_c.c       **** }
 629               		.loc 1 45 23 view .LVU205
 630               	.LBE56:
 631               	.LBE64:
  92:mtk_c.c       **** 
 632               		.loc 1 92 5 is_stmt 1 view .LVU206
 633               	.LBB65:
  72:mtk_c.c       ****     /* readyキューから1つ取り出す */
 634               		.loc 1 72 6 view .LVU207
 635               	.LBB63:
  74:mtk_c.c       **** 
 636               		.loc 1 74 5 view .LVU208
 637               	.LBB62:
  49:mtk_c.c       ****     TASK_ID_TYPE id;
 638               		.loc 1 49 14 view .LVU209
 639               	.LBB61:
  50:mtk_c.c       **** 
 640               		.loc 1 50 5 view .LVU210
  52:mtk_c.c       ****         return NULLTASKID;
 641               		.loc 1 52 5 view .LVU211
  52:mtk_c.c       ****         return NULLTASKID;
 642               		.loc 1 52 9 is_stmt 0 view .LVU212
 643 0288 2239 0000 		move.l ready,%d1
 643      0000 
  52:mtk_c.c       ****         return NULLTASKID;
 644               		.loc 1 52 8 view .LVU213
 645 028e 669C      		jne .L56
 646               	.L61:
 647               	.LVL39:
  52:mtk_c.c       ****         return NULLTASKID;
 648               		.loc 1 52 8 view .LVU214
 649               	.LBE61:
 650               	.LBE62:
  77:mtk_c.c       ****         while(1);
 651               		.loc 1 77 5 is_stmt 1 view .LVU215
 652               	.L50:
  78:mtk_c.c       ****     }
 653               		.loc 1 78 9 view .LVU216
  78:mtk_c.c       ****     }
 654               		.loc 1 78 14 view .LVU217
  78:mtk_c.c       ****     }
 655               		.loc 1 78 9 view .LVU218
  78:mtk_c.c       ****     }
 656               		.loc 1 78 14 view .LVU219
 657 0290 60FE      		jra .L50
 658               	.LBE63:
 659               	.LBE65:


 660               	.LBE66:
 661               	.LBE67:
 662               		.cfi_endproc
 663               	.LFE5:
 664               		.size	p_body, .-p_body
 665               		.align	2
 666               		.globl	v_body
 667               		.type	v_body, @function
 668               	v_body:
 669               	.LVL40:
 670               	.LFB6:
 119:mtk_c.c       **** 
 120:mtk_c.c       **** /* v_body: V操作 (count++) [cite: 839] */
 121:mtk_c.c       **** void v_body(int sem_id) {
 671               		.loc 1 121 25 view -0
 672               		.cfi_startproc
 673               		.loc 1 121 25 is_stmt 0 view .LVU221
 674 0292 48E7 2030 		movem.l #8240,-(%sp)
 675               		.cfi_def_cfa_offset 16
 676               		.cfi_offset 2, -16
 677               		.cfi_offset 10, -12
 678               		.cfi_offset 11, -8
 679 0296 222F 0010 		move.l 16(%sp),%d1
 122:mtk_c.c       ****     semaphore[sem_id].count++;
 680               		.loc 1 122 5 is_stmt 1 view .LVU222
 681               		.loc 1 122 22 is_stmt 0 view .LVU223
 682 029a 41F9 0000 		lea semaphore,%a0
 682      0000 
 683 02a0 2001      		move.l %d1,%d0
 684 02a2 D081      		add.l %d1,%d0
 685 02a4 D081      		add.l %d1,%d0
 686 02a6 D080      		add.l %d0,%d0
 687 02a8 D080      		add.l %d0,%d0
 688               		.loc 1 122 28 view .LVU224
 689 02aa 2230 0800 		move.l (%a0,%d0.l),%d1
 690 02ae 5281      		addq.l #1,%d1
 691 02b0 2181 0800 		move.l %d1,(%a0,%d0.l)
 123:mtk_c.c       ****     if (semaphore[sem_id].count <= 0) {
 692               		.loc 1 123 5 is_stmt 1 view .LVU225
 693               		.loc 1 123 8 is_stmt 0 view .LVU226
 694 02b4 6F06      		jle .L73
 695               	.L62:
 124:mtk_c.c       ****         /* 待っているタスクがいれば起こす */
 125:mtk_c.c       ****         wakeup(sem_id);
 126:mtk_c.c       ****     }
 127:mtk_c.c       **** }
 696               		.loc 1 127 1 view .LVU227
 697 02b6 4CDF 0C04 		movem.l (%sp)+,#3076
 698 02ba 4E75      		rts
 699               	.L73:
 125:mtk_c.c       ****     }
 700               		.loc 1 125 9 is_stmt 1 view .LVU228
 701               	.LVL41:
 702               	.LBB74:
 703               	.LBI74:
  99:mtk_c.c       ****     TASK_ID_TYPE id;
 704               		.loc 1 99 6 view .LVU229


 705               	.LBB75:
 100:mtk_c.c       **** 
 706               		.loc 1 100 5 view .LVU230
 103:mtk_c.c       **** 
 707               		.loc 1 103 5 view .LVU231
 708               	.LBB76:
 709               	.LBI76:
  49:mtk_c.c       ****     TASK_ID_TYPE id;
 710               		.loc 1 49 14 view .LVU232
 711               	.LBB77:
  50:mtk_c.c       **** 
 712               		.loc 1 50 5 view .LVU233
  52:mtk_c.c       ****         return NULLTASKID;
 713               		.loc 1 52 5 view .LVU234
  52:mtk_c.c       ****         return NULLTASKID;
 714               		.loc 1 52 9 is_stmt 0 view .LVU235
 715 02bc 45F0 0808 		lea 8(%a0,%d0.l),%a2
 716 02c0 2412      		move.l (%a2),%d2
  52:mtk_c.c       ****         return NULLTASKID;
 717               		.loc 1 52 8 view .LVU236
 718 02c2 67F2      		jeq .L62
  57:mtk_c.c       ****     /* 先頭位置を次にずらす */
 719               		.loc 1 57 5 is_stmt 1 view .LVU237
 720               	.LVL42:
  59:mtk_c.c       ****     
 721               		.loc 1 59 5 view .LVU238
  59:mtk_c.c       ****     
 722               		.loc 1 59 25 is_stmt 0 view .LVU239
 723 02c4 43F9 0000 		lea task_tab,%a1
 723      0000 
 724 02ca 2042      		move.l %d2,%a0
 725 02cc D1C2      		add.l %d2,%a0
 726 02ce 2008      		move.l %a0,%d0
 727 02d0 D088      		add.l %a0,%d0
 728 02d2 D082      		add.l %d2,%d0
 729 02d4 D080      		add.l %d0,%d0
 730 02d6 D080      		add.l %d0,%d0
 731 02d8 47F1 0810 		lea 16(%a1,%d0.l),%a3
  59:mtk_c.c       ****     
 732               		.loc 1 59 11 view .LVU240
 733 02dc 2493      		move.l (%a3),(%a2)
  62:mtk_c.c       **** 
 734               		.loc 1 62 5 is_stmt 1 view .LVU241
  62:mtk_c.c       **** 
 735               		.loc 1 62 23 is_stmt 0 view .LVU242
 736 02de 4293      		clr.l (%a3)
  64:mtk_c.c       **** }
 737               		.loc 1 64 5 is_stmt 1 view .LVU243
 738               	.LVL43:
  64:mtk_c.c       **** }
 739               		.loc 1 64 5 is_stmt 0 view .LVU244
 740               	.LBE77:
 741               	.LBE76:
 106:mtk_c.c       ****         addq(&ready, id);
 742               		.loc 1 106 5 is_stmt 1 view .LVU245
 107:mtk_c.c       ****     }
 743               		.loc 1 107 9 view .LVU246


 744               	.LBB78:
 745               	.LBI78:
  27:mtk_c.c       ****     TASK_ID_TYPE curr;
 746               		.loc 1 27 6 view .LVU247
 747               	.LBB79:
  28:mtk_c.c       **** 
 748               		.loc 1 28 5 view .LVU248
  31:mtk_c.c       ****         *head = id;
 749               		.loc 1 31 5 view .LVU249
  31:mtk_c.c       ****         *head = id;
 750               		.loc 1 31 9 is_stmt 0 view .LVU250
 751 02e0 2039 0000 		move.l ready,%d0
 751      0000 
  31:mtk_c.c       ****         *head = id;
 752               		.loc 1 31 8 view .LVU251
 753 02e6 6618      		jne .L64
  32:mtk_c.c       ****     } 
 754               		.loc 1 32 9 is_stmt 1 view .LVU252
  32:mtk_c.c       ****     } 
 755               		.loc 1 32 15 is_stmt 0 view .LVU253
 756 02e8 23C2 0000 		move.l %d2,ready
 756      0000 
  45:mtk_c.c       **** }
 757               		.loc 1 45 5 is_stmt 1 view .LVU254
  45:mtk_c.c       **** }
 758               		.loc 1 45 23 is_stmt 0 view .LVU255
 759 02ee D1C8      		add.l %a0,%a0
 760 02f0 D1C2      		add.l %d2,%a0
 761 02f2 D1C8      		add.l %a0,%a0
 762 02f4 D1C8      		add.l %a0,%a0
 763 02f6 42B1 8810 		clr.l 16(%a1,%a0.l)
 764               	.LVL44:
 765               	.L74:
  45:mtk_c.c       **** }
 766               		.loc 1 45 23 view .LVU256
 767               	.LBE79:
 768               	.LBE78:
 769               	.LBE75:
 770               	.LBE74:
 771               		.loc 1 127 1 view .LVU257
 772 02fa 4CDF 0C04 		movem.l (%sp)+,#3076
 773               	.LVL45:
 774               		.loc 1 127 1 view .LVU258
 775 02fe 4E75      		rts
 776               	.LVL46:
 777               	.L64:
 778               	.LBB83:
 779               	.LBB82:
 780               	.LBB81:
 781               	.LBB80:
  37:mtk_c.c       ****             curr = task_tab[curr].next;
 782               		.loc 1 37 36 is_stmt 1 view .LVU259
 783 0300 2200      		move.l %d0,%d1
  37:mtk_c.c       ****             curr = task_tab[curr].next;
 784               		.loc 1 37 30 is_stmt 0 view .LVU260
 785 0302 D080      		add.l %d0,%d0
 786               	.LVL47:


  37:mtk_c.c       ****             curr = task_tab[curr].next;
 787               		.loc 1 37 30 view .LVU261
 788 0304 D080      		add.l %d0,%d0
 789 0306 D081      		add.l %d1,%d0
 790 0308 D080      		add.l %d0,%d0
 791 030a D080      		add.l %d0,%d0
 792 030c 2031 0810 		move.l 16(%a1,%d0.l),%d0
  37:mtk_c.c       ****             curr = task_tab[curr].next;
 793               		.loc 1 37 36 view .LVU262
 794 0310 66EE      		jne .L64
  41:mtk_c.c       ****     }
 795               		.loc 1 41 9 is_stmt 1 view .LVU263
  41:mtk_c.c       ****     }
 796               		.loc 1 41 29 is_stmt 0 view .LVU264
 797 0312 2001      		move.l %d1,%d0
 798 0314 D081      		add.l %d1,%d0
 799 0316 D080      		add.l %d0,%d0
 800 0318 D081      		add.l %d1,%d0
 801 031a D080      		add.l %d0,%d0
 802 031c D080      		add.l %d0,%d0
 803 031e 2382 0810 		move.l %d2,16(%a1,%d0.l)
  45:mtk_c.c       **** }
 804               		.loc 1 45 5 is_stmt 1 view .LVU265
  45:mtk_c.c       **** }
 805               		.loc 1 45 23 is_stmt 0 view .LVU266
 806 0322 D1C8      		add.l %a0,%a0
 807 0324 D1C2      		add.l %d2,%a0
 808 0326 D1C8      		add.l %a0,%a0
 809 0328 D1C8      		add.l %a0,%a0
 810 032a 42B1 8810 		clr.l 16(%a1,%a0.l)
 811               	.LVL48:
  45:mtk_c.c       **** }
 812               		.loc 1 45 23 view .LVU267
 813 032e 60CA      		jra .L74
 814               	.LBE80:
 815               	.LBE81:
 816               	.LBE82:
 817               	.LBE83:
 818               		.cfi_endproc
 819               	.LFE6:
 820               		.size	v_body, .-v_body
 821               		.align	2
 822               		.globl	init_stack
 823               		.type	init_stack, @function
 824               	init_stack:
 825               	.LVL49:
 826               	.LFB7:
 128:mtk_c.c       **** 
 129:mtk_c.c       **** /* ==========================================================
 130:mtk_c.c       ****    初期化関連
 131:mtk_c.c       ****    ========================================================== */
 132:mtk_c.c       **** 
 133:mtk_c.c       **** /* init_stack: タスクのスタックフレーム初期化 [cite: 803] */
 134:mtk_c.c       **** /* 図2.8に基づき、RTEでタスクが開始できるようにダミーのコンテキストを
 135:mtk_c.c       **** void *init_stack(TASK_ID_TYPE id) {
 827               		.loc 1 135 35 is_stmt 1 view -0
 828               		.cfi_startproc


 829               		.loc 1 135 35 is_stmt 0 view .LVU269
 830 0330 2F02      		move.l %d2,-(%sp)
 831               		.cfi_def_cfa_offset 8
 832               		.cfi_offset 2, -8
 833 0332 202F 0008 		move.l 8(%sp),%d0
 136:mtk_c.c       ****     /* スタック配列は0始まり、IDは1始まりなので id-1 を使う */
 137:mtk_c.c       ****     /* スタックの底(高位アドレス)から積んでいくためにポインタを設定 */
 138:mtk_c.c       ****     /* STKSIZEの最後尾のアドレスを取得 */
 139:mtk_c.c       ****     unsigned char *sp = (unsigned char *)&stacks[id - 1].sstack[STKSIZE];
 834               		.loc 1 139 5 is_stmt 1 view .LVU270
 835 0336 2400      		move.l %d0,%d2
 836 0338 720B      		moveq #11,%d1
 837 033a E3AA      		lsl.l %d1,%d2
 838               		.loc 1 139 20 is_stmt 0 view .LVU271
 839 033c 2042      		move.l %d2,%a0
 840 033e D1FC 0000 		add.l #stacks,%a0
 840      0000 
 841               	.LVL50:
 140:mtk_c.c       ****     unsigned long *lsp;
 842               		.loc 1 140 5 is_stmt 1 view .LVU272
 141:mtk_c.c       ****     unsigned short *wsp;
 843               		.loc 1 141 5 view .LVU273
 142:mtk_c.c       **** 
 143:mtk_c.c       ****     /* 1. Initial PC (4bytes) */
 144:mtk_c.c       ****     sp -= 4;
 844               		.loc 1 144 5 view .LVU274
 145:mtk_c.c       ****     lsp = (unsigned long *)sp;
 845               		.loc 1 145 5 view .LVU275
 146:mtk_c.c       ****     *lsp = (unsigned long)task_tab[id].task_addr;
 846               		.loc 1 146 5 view .LVU276
 847               		.loc 1 146 39 is_stmt 0 view .LVU277
 848 0344 2200      		move.l %d0,%d1
 849 0346 D280      		add.l %d0,%d1
 850 0348 D281      		add.l %d1,%d1
 851 034a D280      		add.l %d0,%d1
 852 034c D281      		add.l %d1,%d1
 853 034e D281      		add.l %d1,%d1
 854               		.loc 1 146 10 view .LVU278
 855 0350 43F9 0000 		lea task_tab,%a1
 855      0000 
 856 0356 2171 1800 		move.l (%a1,%d1.l),-4(%a0)
 856      FFFC 
 147:mtk_c.c       **** 
 148:mtk_c.c       ****     /* 2. Initial SR (2bytes) -> 0x0000 (ユーザモード/割込許可) */
 149:mtk_c.c       ****     sp -= 2;
 857               		.loc 1 149 5 is_stmt 1 view .LVU279
 858               	.LVL51:
 150:mtk_c.c       ****     wsp = (unsigned short *)sp;
 859               		.loc 1 150 5 view .LVU280
 151:mtk_c.c       ****     *wsp = 0x0000;
 860               		.loc 1 151 5 view .LVU281
 861               		.loc 1 151 10 is_stmt 0 view .LVU282
 862 035c 4268 FFFA 		clr.w -6(%a0)
 152:mtk_c.c       **** 
 153:mtk_c.c       ****     /* 3. Registers D0-D7, A0-A6 (15 * 4 = 60 bytes) */
 154:mtk_c.c       ****     /* 初期値は不定でよいのでポインタだけずらす */
 155:mtk_c.c       ****     sp -= 60;


 863               		.loc 1 155 5 is_stmt 1 view .LVU283
 864               	.LVL52:
 156:mtk_c.c       **** 
 157:mtk_c.c       ****     /* 4. Initial USP (4bytes) */
 158:mtk_c.c       ****     /* ユーザスタックの底のアドレスを計算して入れる */
 159:mtk_c.c       ****     sp -= 4;
 865               		.loc 1 159 5 view .LVU284
 160:mtk_c.c       ****     lsp = (unsigned long *)sp;
 866               		.loc 1 160 5 view .LVU285
 161:mtk_c.c       ****     *lsp = (unsigned long)&stacks[id - 1].ustack[STKSIZE];
 867               		.loc 1 161 5 view .LVU286
 868               		.loc 1 161 27 is_stmt 0 view .LVU287
 869 0360 0682 0000 		add.l #stacks-1024,%d2
 869      0000 
 870 0366 2142 FFBA 		move.l %d2,-70(%a0)
 162:mtk_c.c       **** 
 163:mtk_c.c       ****     /* 作成したSSPのトップアドレスを返す */
 164:mtk_c.c       ****     return (void *)sp;
 871               		.loc 1 164 5 is_stmt 1 view .LVU288
 165:mtk_c.c       **** }
 872               		.loc 1 165 1 is_stmt 0 view .LVU289
 873 036a 70BA      		moveq #-70,%d0
 874 036c D088      		add.l %a0,%d0
 875               	.LVL53:
 876               		.loc 1 165 1 view .LVU290
 877 036e 241F      		move.l (%sp)+,%d2
 878 0370 4E75      		rts
 879               		.cfi_endproc
 880               	.LFE7:
 881               		.size	init_stack, .-init_stack
 882               		.align	2
 883               		.globl	set_task
 884               		.type	set_task, @function
 885               	set_task:
 886               	.LVL54:
 887               	.LFB8:
 166:mtk_c.c       **** 
 167:mtk_c.c       **** /* set_task: ユーザタスクの登録 [cite: 792] */
 168:mtk_c.c       **** void set_task(void (*func)()) {
 888               		.loc 1 168 31 is_stmt 1 view -0
 889               		.cfi_startproc
 890               		.loc 1 168 31 is_stmt 0 view .LVU292
 891 0372 48E7 2030 		movem.l #8240,-(%sp)
 892               		.cfi_def_cfa_offset 16
 893               		.cfi_offset 2, -16
 894               		.cfi_offset 10, -12
 895               		.cfi_offset 11, -8
 169:mtk_c.c       ****     TASK_ID_TYPE id;
 896               		.loc 1 169 5 is_stmt 1 view .LVU293
 170:mtk_c.c       ****     int i;
 897               		.loc 1 170 5 view .LVU294
 171:mtk_c.c       **** 
 172:mtk_c.c       ****     /* 空いているTCBを探す (ID=1から) */
 173:mtk_c.c       ****     id = NULLTASKID;
 898               		.loc 1 173 5 view .LVU295
 899               	.LVL55:
 174:mtk_c.c       ****     for (i = 1; i <= NUMTASK; i++) {


 900               		.loc 1 174 5 view .LVU296
 901               		.loc 1 174 19 view .LVU297
 902 0376 41F9 0000 		lea task_tab+20,%a0
 902      0000 
 903               		.loc 1 174 12 is_stmt 0 view .LVU298
 904 037c 7201      		moveq #1,%d1
 905               	.LVL56:
 906               	.L79:
 175:mtk_c.c       ****         if (task_tab[i].task_addr == 0) { /* task_addrが0なら未使用とみなす */
 907               		.loc 1 175 9 is_stmt 1 view .LVU299
 908               		.loc 1 175 12 is_stmt 0 view .LVU300
 909 037e 4A90      		tst.l (%a0)
 910 0380 6712      		jeq .L78
 174:mtk_c.c       ****     for (i = 1; i <= NUMTASK; i++) {
 911               		.loc 1 174 32 is_stmt 1 discriminator 2 view .LVU301
 912 0382 5281      		addq.l #1,%d1
 913               	.LVL57:
 174:mtk_c.c       ****     for (i = 1; i <= NUMTASK; i++) {
 914               		.loc 1 174 19 discriminator 2 view .LVU302
 915 0384 41E8 0014 		lea (20,%a0),%a0
 916 0388 7006      		moveq #6,%d0
 917 038a B081      		cmp.l %d1,%d0
 918 038c 66F0      		jne .L79
 176:mtk_c.c       ****             id = i;
 177:mtk_c.c       ****             break;
 178:mtk_c.c       ****         }
 179:mtk_c.c       ****     }
 180:mtk_c.c       **** 
 181:mtk_c.c       ****     if (id == NULLTASKID) {
 182:mtk_c.c       ****         return; /* 空きなし */
 183:mtk_c.c       ****     }
 184:mtk_c.c       **** 
 185:mtk_c.c       ****     /* TCB設定 */
 186:mtk_c.c       ****     task_tab[id].task_addr = func;
 187:mtk_c.c       ****     task_tab[id].status = 1; /* 使用中 */
 188:mtk_c.c       ****     task_tab[id].next = NULLTASKID;
 189:mtk_c.c       **** 
 190:mtk_c.c       ****     /* スタック初期化とSSPの保存 */
 191:mtk_c.c       ****     task_tab[id].stack_ptr = init_stack(id);
 192:mtk_c.c       **** 
 193:mtk_c.c       ****     /* readyキューへ登録 */
 194:mtk_c.c       ****     addq(&ready, id);
 195:mtk_c.c       **** }
 919               		.loc 1 195 1 is_stmt 0 view .LVU303
 920 038e 4CDF 0C04 		movem.l (%sp)+,#3076
 921 0392 4E75      		rts
 922               	.L78:
 923               	.LVL58:
 181:mtk_c.c       ****         return; /* 空きなし */
 924               		.loc 1 181 5 is_stmt 1 view .LVU304
 186:mtk_c.c       ****     task_tab[id].status = 1; /* 使用中 */
 925               		.loc 1 186 5 view .LVU305
 186:mtk_c.c       ****     task_tab[id].status = 1; /* 使用中 */
 926               		.loc 1 186 28 is_stmt 0 view .LVU306
 927 0394 45F9 0000 		lea task_tab,%a2
 927      0000 
 928 039a 2241      		move.l %d1,%a1


 929 039c D3C1      		add.l %d1,%a1
 930 039e 41F1 9800 		lea (%a1,%a1.l),%a0
 931 03a2 D1C1      		add.l %d1,%a0
 932 03a4 D1C8      		add.l %a0,%a0
 933 03a6 D1C8      		add.l %a0,%a0
 934 03a8 25AF 0010 		move.l 16(%sp),(%a2,%a0.l)
 934      8800 
 187:mtk_c.c       ****     task_tab[id].next = NULLTASKID;
 935               		.loc 1 187 5 is_stmt 1 view .LVU307
 187:mtk_c.c       ****     task_tab[id].next = NULLTASKID;
 936               		.loc 1 187 25 is_stmt 0 view .LVU308
 937 03ae 41F2 8800 		lea (%a2,%a0.l),%a0
 938 03b2 7401      		moveq #1,%d2
 939 03b4 2142 000C 		move.l %d2,12(%a0)
 188:mtk_c.c       **** 
 940               		.loc 1 188 5 is_stmt 1 view .LVU309
 188:mtk_c.c       **** 
 941               		.loc 1 188 23 is_stmt 0 view .LVU310
 942 03b8 42A8 0010 		clr.l 16(%a0)
 191:mtk_c.c       **** 
 943               		.loc 1 191 5 is_stmt 1 view .LVU311
 944               	.LVL59:
 945               	.LBB88:
 946               	.LBI88:
 135:mtk_c.c       ****     /* スタック配列は0始まり、IDは1始まりなので id-1 を使う */
 947               		.loc 1 135 7 view .LVU312
 948               	.LBB89:
 139:mtk_c.c       ****     unsigned long *lsp;
 949               		.loc 1 139 5 view .LVU313
 950 03bc 2001      		move.l %d1,%d0
 951 03be 740B      		moveq #11,%d2
 952 03c0 E5A8      		lsl.l %d2,%d0
 139:mtk_c.c       ****     unsigned long *lsp;
 953               		.loc 1 139 20 is_stmt 0 view .LVU314
 954 03c2 2640      		move.l %d0,%a3
 955 03c4 D7FC 0000 		add.l #stacks,%a3
 955      0000 
 956               	.LVL60:
 140:mtk_c.c       ****     unsigned short *wsp;
 957               		.loc 1 140 5 is_stmt 1 view .LVU315
 141:mtk_c.c       **** 
 958               		.loc 1 141 5 view .LVU316
 144:mtk_c.c       ****     lsp = (unsigned long *)sp;
 959               		.loc 1 144 5 view .LVU317
 145:mtk_c.c       ****     *lsp = (unsigned long)task_tab[id].task_addr;
 960               		.loc 1 145 5 view .LVU318
 146:mtk_c.c       **** 
 961               		.loc 1 146 5 view .LVU319
 146:mtk_c.c       **** 
 962               		.loc 1 146 10 is_stmt 0 view .LVU320
 963 03ca 276F 0010 		move.l 16(%sp),-4(%a3)
 963      FFFC 
 149:mtk_c.c       ****     wsp = (unsigned short *)sp;
 964               		.loc 1 149 5 is_stmt 1 view .LVU321
 965               	.LVL61:
 150:mtk_c.c       ****     *wsp = 0x0000;
 966               		.loc 1 150 5 view .LVU322


 151:mtk_c.c       **** 
 967               		.loc 1 151 5 view .LVU323
 151:mtk_c.c       **** 
 968               		.loc 1 151 10 is_stmt 0 view .LVU324
 969 03d0 426B FFFA 		clr.w -6(%a3)
 155:mtk_c.c       **** 
 970               		.loc 1 155 5 is_stmt 1 view .LVU325
 971               	.LVL62:
 159:mtk_c.c       ****     lsp = (unsigned long *)sp;
 972               		.loc 1 159 5 view .LVU326
 160:mtk_c.c       ****     *lsp = (unsigned long)&stacks[id - 1].ustack[STKSIZE];
 973               		.loc 1 160 5 view .LVU327
 161:mtk_c.c       **** 
 974               		.loc 1 161 5 view .LVU328
 161:mtk_c.c       **** 
 975               		.loc 1 161 27 is_stmt 0 view .LVU329
 976 03d4 0680 0000 		add.l #stacks-1024,%d0
 976      0000 
 977 03da 2740 FFBA 		move.l %d0,-70(%a3)
 164:mtk_c.c       **** }
 978               		.loc 1 164 5 is_stmt 1 view .LVU330
 979               	.LVL63:
 159:mtk_c.c       ****     lsp = (unsigned long *)sp;
 980               		.loc 1 159 8 is_stmt 0 view .LVU331
 981 03de 47EB FFBA 		lea (-70,%a3),%a3
 982               	.LVL64:
 159:mtk_c.c       ****     lsp = (unsigned long *)sp;
 983               		.loc 1 159 8 view .LVU332
 984 03e2 214B 0004 		move.l %a3,4(%a0)
 985               	.LBE89:
 986               	.LBE88:
 194:mtk_c.c       **** }
 987               		.loc 1 194 5 is_stmt 1 view .LVU333
 988               	.LVL65:
 989               	.LBB90:
 990               	.LBI90:
  27:mtk_c.c       ****     TASK_ID_TYPE curr;
 991               		.loc 1 27 6 view .LVU334
 992               	.LBB91:
  28:mtk_c.c       **** 
 993               		.loc 1 28 5 view .LVU335
  31:mtk_c.c       ****         *head = id;
 994               		.loc 1 31 5 view .LVU336
  31:mtk_c.c       ****         *head = id;
 995               		.loc 1 31 9 is_stmt 0 view .LVU337
 996 03e6 2039 0000 		move.l ready,%d0
 996      0000 
  31:mtk_c.c       ****         *head = id;
 997               		.loc 1 31 8 view .LVU338
 998 03ec 6618      		jne .L82
  32:mtk_c.c       ****     } 
 999               		.loc 1 32 9 is_stmt 1 view .LVU339
  32:mtk_c.c       ****     } 
 1000               		.loc 1 32 15 is_stmt 0 view .LVU340
 1001 03ee 23C1 0000 		move.l %d1,ready
 1001      0000 
  45:mtk_c.c       **** }


 1002               		.loc 1 45 5 is_stmt 1 view .LVU341
  45:mtk_c.c       **** }
 1003               		.loc 1 45 23 is_stmt 0 view .LVU342
 1004 03f4 D3C9      		add.l %a1,%a1
 1005 03f6 D3C1      		add.l %d1,%a1
 1006 03f8 D3C9      		add.l %a1,%a1
 1007 03fa D3C9      		add.l %a1,%a1
 1008 03fc 42B2 9810 		clr.l 16(%a2,%a1.l)
 1009               	.LVL66:
 1010               	.L88:
  45:mtk_c.c       **** }
 1011               		.loc 1 45 23 view .LVU343
 1012               	.LBE91:
 1013               	.LBE90:
 1014               		.loc 1 195 1 view .LVU344
 1015 0400 4CDF 0C04 		movem.l (%sp)+,#3076
 1016               	.LVL67:
 1017               		.loc 1 195 1 view .LVU345
 1018 0404 4E75      		rts
 1019               	.LVL68:
 1020               	.L82:
 1021               	.LBB93:
 1022               	.LBB92:
  37:mtk_c.c       ****             curr = task_tab[curr].next;
 1023               		.loc 1 37 36 is_stmt 1 view .LVU346
 1024 0406 2040      		move.l %d0,%a0
  37:mtk_c.c       ****             curr = task_tab[curr].next;
 1025               		.loc 1 37 30 is_stmt 0 view .LVU347
 1026 0408 D080      		add.l %d0,%d0
 1027               	.LVL69:
  37:mtk_c.c       ****             curr = task_tab[curr].next;
 1028               		.loc 1 37 30 view .LVU348
 1029 040a D080      		add.l %d0,%d0
 1030 040c D088      		add.l %a0,%d0
 1031 040e D080      		add.l %d0,%d0
 1032 0410 D080      		add.l %d0,%d0
 1033 0412 2032 0810 		move.l 16(%a2,%d0.l),%d0
  37:mtk_c.c       ****             curr = task_tab[curr].next;
 1034               		.loc 1 37 36 view .LVU349
 1035 0416 66EE      		jne .L82
  41:mtk_c.c       ****     }
 1036               		.loc 1 41 9 is_stmt 1 view .LVU350
  41:mtk_c.c       ****     }
 1037               		.loc 1 41 29 is_stmt 0 view .LVU351
 1038 0418 2008      		move.l %a0,%d0
 1039 041a D088      		add.l %a0,%d0
 1040 041c D080      		add.l %d0,%d0
 1041 041e D088      		add.l %a0,%d0
 1042 0420 D080      		add.l %d0,%d0
 1043 0422 D080      		add.l %d0,%d0
 1044 0424 2581 0810 		move.l %d1,16(%a2,%d0.l)
  45:mtk_c.c       **** }
 1045               		.loc 1 45 5 is_stmt 1 view .LVU352
  45:mtk_c.c       **** }
 1046               		.loc 1 45 23 is_stmt 0 view .LVU353
 1047 0428 D3C9      		add.l %a1,%a1
 1048 042a D3C1      		add.l %d1,%a1


 1049 042c D3C9      		add.l %a1,%a1
 1050 042e D3C9      		add.l %a1,%a1
 1051 0430 42B2 9810 		clr.l 16(%a2,%a1.l)
 1052               	.LVL70:
  45:mtk_c.c       **** }
 1053               		.loc 1 45 23 view .LVU354
 1054 0434 60CA      		jra .L88
 1055               	.LBE92:
 1056               	.LBE93:
 1057               		.cfi_endproc
 1058               	.LFE8:
 1059               		.size	set_task, .-set_task
 1060               		.align	2
 1061               		.globl	init_kernel
 1062               		.type	init_kernel, @function
 1063               	init_kernel:
 1064               	.LFB9:
 196:mtk_c.c       **** 
 197:mtk_c.c       **** /* init_kernel: カーネルの初期化 [cite: 785] */
 198:mtk_c.c       **** void init_kernel(void) {
 1065               		.loc 1 198 24 is_stmt 1 view -0
 1066               		.cfi_startproc
 199:mtk_c.c       ****     int i;
 1067               		.loc 1 199 5 view .LVU356
 200:mtk_c.c       **** 
 201:mtk_c.c       ****     /* 変数初期化 */
 202:mtk_c.c       ****     ready = NULLTASKID;
 1068               		.loc 1 202 5 view .LVU357
 1069               		.loc 1 202 11 is_stmt 0 view .LVU358
 1070 0436 42B9 0000 		clr.l ready
 1070      0000 
 203:mtk_c.c       ****     curr_task = NULLTASKID;
 1071               		.loc 1 203 5 is_stmt 1 view .LVU359
 1072               		.loc 1 203 15 is_stmt 0 view .LVU360
 1073 043c 42B9 0000 		clr.l curr_task
 1073      0000 
 204:mtk_c.c       ****     next_task = NULLTASKID;
 1074               		.loc 1 204 5 is_stmt 1 view .LVU361
 1075               		.loc 1 204 15 is_stmt 0 view .LVU362
 1076 0442 42B9 0000 		clr.l next_task
 1076      0000 
 205:mtk_c.c       **** 
 206:mtk_c.c       ****     /* TCB初期化 */
 207:mtk_c.c       ****     for (i = 0; i <= NUMTASK; i++) {
 1077               		.loc 1 207 5 is_stmt 1 view .LVU363
 1078               	.LVL71:
 1079               		.loc 1 207 19 view .LVU364
 1080 0448 41F9 0000 		lea task_tab,%a0
 1080      0000 
 1081 044e 203C 0000 		move.l #task_tab+120,%d0
 1081      0000 
 1082               	.LVL72:
 1083               	.L90:
 208:mtk_c.c       ****         task_tab[i].task_addr = 0;
 1084               		.loc 1 208 9 discriminator 3 view .LVU365
 1085               		.loc 1 208 31 is_stmt 0 discriminator 3 view .LVU366
 1086 0454 4290      		clr.l (%a0)


 209:mtk_c.c       ****         task_tab[i].next = NULLTASKID;
 1087               		.loc 1 209 9 is_stmt 1 discriminator 3 view .LVU367
 1088               		.loc 1 209 26 is_stmt 0 discriminator 3 view .LVU368
 1089 0456 42A8 0010 		clr.l 16(%a0)
 207:mtk_c.c       ****         task_tab[i].task_addr = 0;
 1090               		.loc 1 207 32 is_stmt 1 discriminator 3 view .LVU369
 207:mtk_c.c       ****         task_tab[i].task_addr = 0;
 1091               		.loc 1 207 19 discriminator 3 view .LVU370
 1092 045a 41E8 0014 		lea (20,%a0),%a0
 1093 045e B1C0      		cmp.l %d0,%a0
 1094 0460 66F2      		jne .L90
 1095               	.LVL73:
 210:mtk_c.c       ****     }
 211:mtk_c.c       **** 
 212:mtk_c.c       ****     /* セマフォ初期化 */
 213:mtk_c.c       ****     for (i = 0; i < NUMSEMAPHORE; i++) {
 1096               		.loc 1 213 19 view .LVU371
 214:mtk_c.c       ****         semaphore[i].count = 0; /* 初期値は用途によるが一旦0 */
 1097               		.loc 1 214 9 view .LVU372
 1098               		.loc 1 214 28 is_stmt 0 view .LVU373
 1099 0462 42B9 0000 		clr.l semaphore
 1099      0000 
 215:mtk_c.c       ****         semaphore[i].task_list = NULLTASKID;
 1100               		.loc 1 215 9 is_stmt 1 view .LVU374
 1101               		.loc 1 215 32 is_stmt 0 view .LVU375
 1102 0468 42B9 0000 		clr.l semaphore+8
 1102      0000 
 213:mtk_c.c       ****         semaphore[i].count = 0; /* 初期値は用途によるが一旦0 */
 1103               		.loc 1 213 36 is_stmt 1 view .LVU376
 1104               	.LVL74:
 213:mtk_c.c       ****         semaphore[i].count = 0; /* 初期値は用途によるが一旦0 */
 1105               		.loc 1 213 19 view .LVU377
 214:mtk_c.c       ****         semaphore[i].count = 0; /* 初期値は用途によるが一旦0 */
 1106               		.loc 1 214 9 view .LVU378
 214:mtk_c.c       ****         semaphore[i].count = 0; /* 初期値は用途によるが一旦0 */
 1107               		.loc 1 214 28 is_stmt 0 view .LVU379
 1108 046e 42B9 0000 		clr.l semaphore+12
 1108      0000 
 1109               		.loc 1 215 9 is_stmt 1 view .LVU380
 1110               		.loc 1 215 32 is_stmt 0 view .LVU381
 1111 0474 42B9 0000 		clr.l semaphore+20
 1111      0000 
 213:mtk_c.c       ****         semaphore[i].count = 0; /* 初期値は用途によるが一旦0 */
 1112               		.loc 1 213 36 is_stmt 1 view .LVU382
 1113               	.LVL75:
 213:mtk_c.c       ****         semaphore[i].count = 0; /* 初期値は用途によるが一旦0 */
 1114               		.loc 1 213 19 view .LVU383
 216:mtk_c.c       ****     }
 217:mtk_c.c       **** 
 218:mtk_c.c       ****     /* TRAP #1 (Vector 33) に pv_handler を登録 */
 219:mtk_c.c       ****     /* Vector address = 33 * 4 = 132 = 0x84 */
 220:mtk_c.c       ****     *(void (**)())0x84 = pv_handler;
 1115               		.loc 1 220 5 view .LVU384
 1116               		.loc 1 220 24 is_stmt 0 view .LVU385
 1117 047a 21FC 0000 		move.l #pv_handler,132.w
 1117      0000 0084 
 221:mtk_c.c       **** }


 1118               		.loc 1 221 1 view .LVU386
 1119 0482 4E75      		rts
 1120               		.cfi_endproc
 1121               	.LFE9:
 1122               		.size	init_kernel, .-init_kernel
 1123               		.align	2
 1124               		.globl	begin_sch
 1125               		.type	begin_sch, @function
 1126               	begin_sch:
 1127               	.LFB10:
 222:mtk_c.c       **** 
 223:mtk_c.c       **** /* begin_sch: マルチタスク開始 [cite: 808] */
 224:mtk_c.c       **** void begin_sch(void) {
 1128               		.loc 1 224 22 is_stmt 1 view -0
 1129               		.cfi_startproc
 225:mtk_c.c       ****     /* 最初のタスクを決める */
 226:mtk_c.c       ****     curr_task = removeq(&ready);
 1130               		.loc 1 226 5 view .LVU388
 1131               	.LVL76:
 1132               	.LBB94:
 1133               	.LBI94:
  49:mtk_c.c       ****     TASK_ID_TYPE id;
 1134               		.loc 1 49 14 view .LVU389
 1135               	.LBB95:
  50:mtk_c.c       **** 
 1136               		.loc 1 50 5 view .LVU390
  52:mtk_c.c       ****         return NULLTASKID;
 1137               		.loc 1 52 5 view .LVU391
  52:mtk_c.c       ****         return NULLTASKID;
 1138               		.loc 1 52 9 is_stmt 0 view .LVU392
 1139 0484 2039 0000 		move.l ready,%d0
 1139      0000 
  52:mtk_c.c       ****         return NULLTASKID;
 1140               		.loc 1 52 8 view .LVU393
 1141 048a 671A      		jeq .L95
  57:mtk_c.c       ****     /* 先頭位置を次にずらす */
 1142               		.loc 1 57 5 is_stmt 1 view .LVU394
 1143               	.LVL77:
  59:mtk_c.c       ****     
 1144               		.loc 1 59 5 view .LVU395
  59:mtk_c.c       ****     
 1145               		.loc 1 59 25 is_stmt 0 view .LVU396
 1146 048c 2040      		move.l %d0,%a0
 1147 048e D1C0      		add.l %d0,%a0
 1148 0490 D1C8      		add.l %a0,%a0
 1149 0492 D1C0      		add.l %d0,%a0
 1150 0494 D1C8      		add.l %a0,%a0
 1151 0496 D1C8      		add.l %a0,%a0
 1152 0498 D1FC 0000 		add.l #task_tab+16,%a0
 1152      0000 
  59:mtk_c.c       ****     
 1153               		.loc 1 59 11 view .LVU397
 1154 049e 23D0 0000 		move.l (%a0),ready
 1154      0000 
  62:mtk_c.c       **** 
 1155               		.loc 1 62 5 is_stmt 1 view .LVU398
  62:mtk_c.c       **** 


 1156               		.loc 1 62 23 is_stmt 0 view .LVU399
 1157 04a4 4290      		clr.l (%a0)
  64:mtk_c.c       **** }
 1158               		.loc 1 64 5 is_stmt 1 view .LVU400
 1159               	.LVL78:
 1160               	.L95:
  64:mtk_c.c       **** }
 1161               		.loc 1 64 5 is_stmt 0 view .LVU401
 1162               	.LBE95:
 1163               	.LBE94:
 1164               		.loc 1 226 15 view .LVU402
 1165 04a6 23C0 0000 		move.l %d0,curr_task
 1165      0000 
 227:mtk_c.c       **** 
 228:mtk_c.c       ****     /* タイマの初期化 (mtk_asm.s) */
 229:mtk_c.c       ****     init_timer();
 1166               		.loc 1 229 5 is_stmt 1 view .LVU403
 1167 04ac 4EB9 0000 		jsr init_timer
 1167      0000 
 1168               	.LVL79:
 230:mtk_c.c       **** 
 231:mtk_c.c       ****     /* 最初のタスクへ飛ぶ (mtk_asm.s) */
 232:mtk_c.c       ****     /* ここからは戻ってこない */
 233:mtk_c.c       ****     first_task();
 1169               		.loc 1 233 5 view .LVU404
 234:mtk_c.c       **** }
 1170               		.loc 1 234 1 is_stmt 0 view .LVU405
 233:mtk_c.c       **** }
 1171               		.loc 1 233 5 view .LVU406
 1172 04b2 4EF9 0000 		jra first_task
 1172      0000 
 1173               	.LVL80:
 1174               		.cfi_endproc
 1175               	.LFE10:
 1176               		.size	begin_sch, .-begin_sch
 1177               		.globl	next_task
 1178               		.section	.bss
 1179               		.align	2
 1180               		.type	next_task, @object
 1181               		.size	next_task, 4
 1182               	next_task:
 1183 0000 0000 0000 		.zero	4
 1184               		.globl	curr_task
 1185               		.align	2
 1186               		.type	curr_task, @object
 1187               		.size	curr_task, 4
 1188               	curr_task:
 1189 0004 0000 0000 		.zero	4
 1190               		.globl	ready
 1191               		.align	2
 1192               		.type	ready, @object
 1193               		.size	ready, 4
 1194               	ready:
 1195 0008 0000 0000 		.zero	4
 1196               		.globl	semaphore
 1197               		.align	2
 1198               		.type	semaphore, @object


 1199               		.size	semaphore, 24
 1200               	semaphore:
 1201 000c 0000 0000 		.zero	24
 1201      0000 0000 
 1201      0000 0000 
 1201      0000 0000 
 1201      0000 0000 
 1202               		.globl	stacks
 1203               		.type	stacks, @object
 1204               		.size	stacks, 10240
 1205               	stacks:
 1206 0024 0000 0000 		.zero	10240
 1206      0000 0000 
 1206      0000 0000 
 1206      0000 0000 
 1206      0000 0000 
 1207               		.globl	task_tab
 1208               		.align	2
 1209               		.type	task_tab, @object
 1210               		.size	task_tab, 120
 1211               	task_tab:
 1212 2824 0000 0000 		.zero	120
 1212      0000 0000 
 1212      0000 0000 
 1212      0000 0000 
 1212      0000 0000 
 1213               		.text
 1214               	.Letext0:
 1215               		.file 2 "mtk_c.h"
 1216               		.section	.debug_info,"",@progbits
 1217               	.Ldebug_info0:
 1218 0000 0000 07C1 		.long	0x7c1
 1219 0004 0005      		.word	0x5
 1220 0006 01        		.byte	0x1
 1221 0007 04        		.byte	0x4
 1222 0008 0000 0000 		.long	.Ldebug_abbrev0
 1223 000c 1C        		.uleb128 0x1c
 1224 000d 0000 0000 		.long	.LASF41
 1225 0011 1D        		.byte	0x1d
 1226 0012 0000 0000 		.long	.LASF42
 1227 0016 0000 0000 		.long	.LASF43
 1228 001a 0000 0000 		.long	.Ltext0
 1229 001e 0000 04B8 		.long	.Letext0-.Ltext0
 1230 0022 0000 0000 		.long	.Ldebug_line0
 1231 0026 0C        		.uleb128 0xc
 1232 0027 0000 0000 		.long	.LASF2
 1233 002b 0C        		.byte	0xc
 1234 002c 0D        		.byte	0xd
 1235 002d 0000 0031 		.long	0x31
 1236 0031 1D        		.uleb128 0x1d
 1237 0032 04        		.byte	0x4
 1238 0033 05        		.byte	0x5
 1239 0034 696E 7400 		.string	"int"
 1240 0038 18        		.uleb128 0x18
 1241 0039 0C        		.byte	0xc
 1242 003a 0F        		.byte	0xf
 1243 003b 0000 0065 		.long	0x65


 1244 003f 03        		.uleb128 0x3
 1245 0040 0000 0000 		.long	.LASF0
 1246 0044 10        		.byte	0x10
 1247 0045 09        		.byte	0x9
 1248 0046 0000 0031 		.long	0x31
 1249 004a 00        		.byte	0
 1250 004b 1E        		.uleb128 0x1e
 1251 004c 6E73 7400 		.string	"nst"
 1252 0050 02        		.byte	0x2
 1253 0051 11        		.byte	0x11
 1254 0052 09        		.byte	0x9
 1255 0053 0000 0031 		.long	0x31
 1256 0057 04        		.byte	0x4
 1257 0058 03        		.uleb128 0x3
 1258 0059 0000 0000 		.long	.LASF1
 1259 005d 12        		.byte	0x12
 1260 005e 12        		.byte	0x12
 1261 005f 0000 0026 		.long	0x26
 1262 0063 08        		.byte	0x8
 1263 0064 00        		.byte	0
 1264 0065 0C        		.uleb128 0xc
 1265 0066 0000 0000 		.long	.LASF3
 1266 006a 13        		.byte	0x13
 1267 006b 03        		.byte	0x3
 1268 006c 0000 0038 		.long	0x38
 1269 0070 18        		.uleb128 0x18
 1270 0071 14        		.byte	0x14
 1271 0072 16        		.byte	0x16
 1272 0073 0000 00B4 		.long	0xb4
 1273 0077 03        		.uleb128 0x3
 1274 0078 0000 0000 		.long	.LASF4
 1275 007c 17        		.byte	0x17
 1276 007d 0C        		.byte	0xc
 1277 007e 0000 00BB 		.long	0xbb
 1278 0082 00        		.byte	0
 1279 0083 03        		.uleb128 0x3
 1280 0084 0000 0000 		.long	.LASF5
 1281 0088 18        		.byte	0x18
 1282 0089 0B        		.byte	0xb
 1283 008a 0000 00C0 		.long	0xc0
 1284 008e 04        		.byte	0x4
 1285 008f 03        		.uleb128 0x3
 1286 0090 0000 0000 		.long	.LASF6
 1287 0094 19        		.byte	0x19
 1288 0095 09        		.byte	0x9
 1289 0096 0000 0031 		.long	0x31
 1290 009a 08        		.byte	0x8
 1291 009b 03        		.uleb128 0x3
 1292 009c 0000 0000 		.long	.LASF7
 1293 00a0 1A        		.byte	0x1a
 1294 00a1 09        		.byte	0x9
 1295 00a2 0000 0031 		.long	0x31
 1296 00a6 0C        		.byte	0xc
 1297 00a7 03        		.uleb128 0x3
 1298 00a8 0000 0000 		.long	.LASF8
 1299 00ac 1B        		.byte	0x1b
 1300 00ad 12        		.byte	0x12


 1301 00ae 0000 0026 		.long	0x26
 1302 00b2 10        		.byte	0x10
 1303 00b3 00        		.byte	0
 1304 00b4 1F        		.uleb128 0x1f
 1305 00b5 0000 00BB 		.long	0xbb
 1306 00b9 19        		.uleb128 0x19
 1307 00ba 00        		.byte	0
 1308 00bb 08        		.uleb128 0x8
 1309 00bc 0000 00B4 		.long	0xb4
 1310 00c0 20        		.uleb128 0x20
 1311 00c1 04        		.byte	0x4
 1312 00c2 0C        		.uleb128 0xc
 1313 00c3 0000 0000 		.long	.LASF9
 1314 00c7 1C        		.byte	0x1c
 1315 00c8 03        		.byte	0x3
 1316 00c9 0000 0070 		.long	0x70
 1317 00cd 21        		.uleb128 0x21
 1318 00ce 0800      		.word	0x800
 1319 00d0 02        		.byte	0x2
 1320 00d1 1F        		.byte	0x1f
 1321 00d2 09        		.byte	0x9
 1322 00d3 0000 00F2 		.long	0xf2
 1323 00d7 03        		.uleb128 0x3
 1324 00d8 0000 0000 		.long	.LASF10
 1325 00dc 20        		.byte	0x20
 1326 00dd 0A        		.byte	0xa
 1327 00de 0000 00F2 		.long	0xf2
 1328 00e2 00        		.byte	0
 1329 00e3 22        		.uleb128 0x22
 1330 00e4 0000 0000 		.long	.LASF11
 1331 00e8 02        		.byte	0x2
 1332 00e9 21        		.byte	0x21
 1333 00ea 0A        		.byte	0xa
 1334 00eb 0000 00F2 		.long	0xf2
 1335 00ef 0400      		.word	0x400
 1336 00f1 00        		.byte	0
 1337 00f2 0D        		.uleb128 0xd
 1338 00f3 0000 010A 		.long	0x10a
 1339 00f7 0000 0103 		.long	0x103
 1340 00fb 23        		.uleb128 0x23
 1341 00fc 0000 0103 		.long	0x103
 1342 0100 03FF      		.word	0x3ff
 1343 0102 00        		.byte	0
 1344 0103 0E        		.uleb128 0xe
 1345 0104 04        		.byte	0x4
 1346 0105 07        		.byte	0x7
 1347 0106 0000 0000 		.long	.LASF12
 1348 010a 0E        		.uleb128 0xe
 1349 010b 01        		.byte	0x1
 1350 010c 06        		.byte	0x6
 1351 010d 0000 0000 		.long	.LASF13
 1352 0111 0C        		.uleb128 0xc
 1353 0112 0000 0000 		.long	.LASF14
 1354 0116 22        		.byte	0x22
 1355 0117 03        		.byte	0x3
 1356 0118 0000 00CD 		.long	0xcd
 1357 011c 0D        		.uleb128 0xd


 1358 011d 0000 00C2 		.long	0xc2
 1359 0121 0000 012C 		.long	0x12c
 1360 0125 12        		.uleb128 0x12
 1361 0126 0000 0103 		.long	0x103
 1362 012a 05        		.byte	0x5
 1363 012b 00        		.byte	0
 1364 012c 06        		.uleb128 0x6
 1365 012d 0000 0000 		.long	.LASF15
 1366 0131 0A        		.byte	0xa
 1367 0132 0A        		.byte	0xa
 1368 0133 0000 011C 		.long	0x11c
 1369 0137 05        		.uleb128 0x5
 1370 0138 03        		.byte	0x3
 1371 0139 0000 0000 		.long	task_tab
 1372 013d 0D        		.uleb128 0xd
 1373 013e 0000 0111 		.long	0x111
 1374 0142 0000 014D 		.long	0x14d
 1375 0146 12        		.uleb128 0x12
 1376 0147 0000 0103 		.long	0x103
 1377 014b 04        		.byte	0x4
 1378 014c 00        		.byte	0
 1379 014d 06        		.uleb128 0x6
 1380 014e 0000 0000 		.long	.LASF16
 1381 0152 0B        		.byte	0xb
 1382 0153 0C        		.byte	0xc
 1383 0154 0000 013D 		.long	0x13d
 1384 0158 05        		.uleb128 0x5
 1385 0159 03        		.byte	0x3
 1386 015a 0000 0000 		.long	stacks
 1387 015e 0D        		.uleb128 0xd
 1388 015f 0000 0065 		.long	0x65
 1389 0163 0000 016E 		.long	0x16e
 1390 0167 12        		.uleb128 0x12
 1391 0168 0000 0103 		.long	0x103
 1392 016c 01        		.byte	0x1
 1393 016d 00        		.byte	0
 1394 016e 06        		.uleb128 0x6
 1395 016f 0000 0000 		.long	.LASF17
 1396 0173 0C        		.byte	0xc
 1397 0174 10        		.byte	0x10
 1398 0175 0000 015E 		.long	0x15e
 1399 0179 05        		.uleb128 0x5
 1400 017a 03        		.byte	0x3
 1401 017b 0000 0000 		.long	semaphore
 1402 017f 06        		.uleb128 0x6
 1403 0180 0000 0000 		.long	.LASF18
 1404 0184 0E        		.byte	0xe
 1405 0185 0E        		.byte	0xe
 1406 0186 0000 0026 		.long	0x26
 1407 018a 05        		.uleb128 0x5
 1408 018b 03        		.byte	0x3
 1409 018c 0000 0000 		.long	ready
 1410 0190 06        		.uleb128 0x6
 1411 0191 0000 0000 		.long	.LASF19
 1412 0195 0F        		.byte	0xf
 1413 0196 0E        		.byte	0xe
 1414 0197 0000 0026 		.long	0x26


 1415 019b 05        		.uleb128 0x5
 1416 019c 03        		.byte	0x3
 1417 019d 0000 0000 		.long	curr_task
 1418 01a1 06        		.uleb128 0x6
 1419 01a2 0000 0000 		.long	.LASF20
 1420 01a6 10        		.byte	0x10
 1421 01a7 0E        		.byte	0xe
 1422 01a8 0000 0026 		.long	0x26
 1423 01ac 05        		.uleb128 0x5
 1424 01ad 03        		.byte	0x3
 1425 01ae 0000 0000 		.long	next_task
 1426 01b2 13        		.uleb128 0x13
 1427 01b3 0000 0000 		.long	.LASF21
 1428 01b7 3E        		.byte	0x3e
 1429 01b8 13        		.uleb128 0x13
 1430 01b9 0000 0000 		.long	.LASF22
 1431 01bd 42        		.byte	0x42
 1432 01be 24        		.uleb128 0x24
 1433 01bf 0000 0000 		.long	.LASF44
 1434 01c3 01        		.byte	0x1
 1435 01c4 14        		.byte	0x14
 1436 01c5 0D        		.byte	0xd
 1437 01c6 0000 01CC 		.long	0x1cc
 1438 01ca 19        		.uleb128 0x19
 1439 01cb 00        		.byte	0
 1440 01cc 13        		.uleb128 0x13
 1441 01cd 0000 0000 		.long	.LASF23
 1442 01d1 3F        		.byte	0x3f
 1443 01d2 09        		.uleb128 0x9
 1444 01d3 0000 0000 		.long	.LASF24
 1445 01d7 E0        		.byte	0xe0
 1446 01d8 0000 0000 		.long	.LFB10
 1447 01dc 0000 0034 		.long	.LFE10-.LFB10
 1448 01e0 01        		.uleb128 0x1
 1449 01e1 9C        		.byte	0x9c
 1450 01e2 0000 022C 		.long	0x22c
 1451 01e6 0F        		.uleb128 0xf
 1452 01e7 0000 054C 		.long	0x54c
 1453 01eb 0000 0000 		.long	.LBI94
 1454 01ef 02        		.byte	.LVU389
 1455 01f0 0000 0000 		.long	.LBB94
 1456 01f4 0000 0022 		.long	.LBE94-.LBB94
 1457 01f8 E2        		.byte	0xe2
 1458 01f9 11        		.byte	0x11
 1459 01fa 0000 0219 		.long	0x219
 1460 01fe 02        		.uleb128 0x2
 1461 01ff 0000 055B 		.long	0x55b
 1462 0203 0000 0000 		.long	.LLST52
 1463 0207 0000 0000 		.long	.LVUS52
 1464 020b 01        		.uleb128 0x1
 1465 020c 0000 0566 		.long	0x566
 1466 0210 0000 0000 		.long	.LLST53
 1467 0214 0000 0000 		.long	.LVUS53
 1468 0218 00        		.byte	0
 1469 0219 25        		.uleb128 0x25
 1470 021a 0000 0000 		.long	.LVL79
 1471 021e 0000 01B8 		.long	0x1b8


 1472 0222 14        		.uleb128 0x14
 1473 0223 0000 0000 		.long	.LVL80
 1474 0227 0000 01B2 		.long	0x1b2
 1475 022b 00        		.byte	0
 1476 022c 09        		.uleb128 0x9
 1477 022d 0000 0000 		.long	.LASF25
 1478 0231 C6        		.byte	0xc6
 1479 0232 0000 0000 		.long	.LFB9
 1480 0236 0000 004E 		.long	.LFE9-.LFB9
 1481 023a 01        		.uleb128 0x1
 1482 023b 9C        		.byte	0x9c
 1483 023c 0000 0252 		.long	0x252
 1484 0240 15        		.uleb128 0x15
 1485 0241 6900      		.string	"i"
 1486 0243 C7        		.byte	0xc7
 1487 0244 09        		.byte	0x9
 1488 0245 0000 0031 		.long	0x31
 1489 0249 0000 0000 		.long	.LLST51
 1490 024d 0000 0000 		.long	.LVUS51
 1491 0251 00        		.byte	0
 1492 0252 09        		.uleb128 0x9
 1493 0253 0000 0000 		.long	.LASF26
 1494 0257 A8        		.byte	0xa8
 1495 0258 0000 0000 		.long	.LFB8
 1496 025c 0000 00C4 		.long	.LFE8-.LFB8
 1497 0260 01        		.uleb128 0x1
 1498 0261 9C        		.byte	0x9c
 1499 0262 0000 0323 		.long	0x323
 1500 0266 16        		.uleb128 0x16
 1501 0267 0000 0000 		.long	.LASF30
 1502 026b A8        		.byte	0xa8
 1503 026c 16        		.byte	0x16
 1504 026d 0000 00BB 		.long	0xbb
 1505 0271 02        		.uleb128 0x2
 1506 0272 91        		.byte	0x91
 1507 0273 00        		.sleb128 0
 1508 0274 15        		.uleb128 0x15
 1509 0275 6964 00   		.string	"id"
 1510 0278 A9        		.byte	0xa9
 1511 0279 12        		.byte	0x12
 1512 027a 0000 0026 		.long	0x26
 1513 027e 0000 0000 		.long	.LLST41
 1514 0282 0000 0000 		.long	.LVUS41
 1515 0286 15        		.uleb128 0x15
 1516 0287 6900      		.string	"i"
 1517 0289 AA        		.byte	0xaa
 1518 028a 09        		.byte	0x9
 1519 028b 0000 0031 		.long	0x31
 1520 028f 0000 0000 		.long	.LLST42
 1521 0293 0000 0000 		.long	.LVUS42
 1522 0297 0F        		.uleb128 0xf
 1523 0298 0000 0323 		.long	0x323
 1524 029c 0000 0000 		.long	.LBI88
 1525 02a0 01        		.byte	.LVU312
 1526 02a1 0000 0000 		.long	.LBB88
 1527 02a5 0000 002A 		.long	.LBE88-.LBB88
 1528 02a9 BF        		.byte	0xbf


 1529 02aa 1E        		.byte	0x1e
 1530 02ab 0000 02E4 		.long	0x2e4
 1531 02af 02        		.uleb128 0x2
 1532 02b0 0000 0332 		.long	0x332
 1533 02b4 0000 0000 		.long	.LLST43
 1534 02b8 0000 0000 		.long	.LVUS43
 1535 02bc 01        		.uleb128 0x1
 1536 02bd 0000 033C 		.long	0x33c
 1537 02c1 0000 0000 		.long	.LLST44
 1538 02c5 0000 0000 		.long	.LVUS44
 1539 02c9 01        		.uleb128 0x1
 1540 02ca 0000 0346 		.long	0x346
 1541 02ce 0000 0000 		.long	.LLST45
 1542 02d2 0000 0000 		.long	.LVUS45
 1543 02d6 01        		.uleb128 0x1
 1544 02d7 0000 0351 		.long	0x351
 1545 02db 0000 0000 		.long	.LLST46
 1546 02df 0000 0000 		.long	.LVUS46
 1547 02e3 00        		.byte	0
 1548 02e4 05        		.uleb128 0x5
 1549 02e5 0000 0576 		.long	0x576
 1550 02e9 0000 0000 		.long	.LBI90
 1551 02ed 01        		.byte	.LVU334
 1552 02ee 0000 0000 		.long	.LLRL47
 1553 02f2 C2        		.byte	0xc2
 1554 02f3 05        		.byte	0x5
 1555 02f4 02        		.uleb128 0x2
 1556 02f5 0000 058B 		.long	0x58b
 1557 02f9 0000 0000 		.long	.LLST48
 1558 02fd 0000 0000 		.long	.LVUS48
 1559 0301 02        		.uleb128 0x2
 1560 0302 0000 0580 		.long	0x580
 1561 0306 0000 0000 		.long	.LLST49
 1562 030a 0000 0000 		.long	.LVUS49
 1563 030e 04        		.uleb128 0x4
 1564 030f 0000 0000 		.long	.LLRL47
 1565 0313 01        		.uleb128 0x1
 1566 0314 0000 0595 		.long	0x595
 1567 0318 0000 0000 		.long	.LLST50
 1568 031c 0000 0000 		.long	.LVUS50
 1569 0320 00        		.byte	0
 1570 0321 00        		.byte	0
 1571 0322 00        		.byte	0
 1572 0323 1A        		.uleb128 0x1a
 1573 0324 0000 0000 		.long	.LASF36
 1574 0328 87        		.byte	0x87
 1575 0329 07        		.byte	0x7
 1576 032a 0000 00C0 		.long	0xc0
 1577 032e 0000 035D 		.long	0x35d
 1578 0332 10        		.uleb128 0x10
 1579 0333 6964 00   		.string	"id"
 1580 0336 87        		.byte	0x87
 1581 0337 1F        		.byte	0x1f
 1582 0338 0000 0026 		.long	0x26
 1583 033c 0A        		.uleb128 0xa
 1584 033d 7370 00   		.string	"sp"
 1585 0340 8B        		.byte	0x8b


 1586 0341 14        		.byte	0x14
 1587 0342 0000 035D 		.long	0x35d
 1588 0346 0A        		.uleb128 0xa
 1589 0347 6C73 7000 		.string	"lsp"
 1590 034b 8C        		.byte	0x8c
 1591 034c 14        		.byte	0x14
 1592 034d 0000 0369 		.long	0x369
 1593 0351 0A        		.uleb128 0xa
 1594 0352 7773 7000 		.string	"wsp"
 1595 0356 8D        		.byte	0x8d
 1596 0357 15        		.byte	0x15
 1597 0358 0000 036E 		.long	0x36e
 1598 035c 00        		.byte	0
 1599 035d 08        		.uleb128 0x8
 1600 035e 0000 0362 		.long	0x362
 1601 0362 0E        		.uleb128 0xe
 1602 0363 01        		.byte	0x1
 1603 0364 08        		.byte	0x8
 1604 0365 0000 0000 		.long	.LASF27
 1605 0369 08        		.uleb128 0x8
 1606 036a 0000 0103 		.long	0x103
 1607 036e 08        		.uleb128 0x8
 1608 036f 0000 0373 		.long	0x373
 1609 0373 0E        		.uleb128 0xe
 1610 0374 02        		.byte	0x2
 1611 0375 07        		.byte	0x7
 1612 0376 0000 0000 		.long	.LASF28
 1613 037a 09        		.uleb128 0x9
 1614 037b 0000 0000 		.long	.LASF29
 1615 037f 79        		.byte	0x79
 1616 0380 0000 0000 		.long	.LFB6
 1617 0384 0000 009E 		.long	.LFE6-.LFB6
 1618 0388 01        		.uleb128 0x1
 1619 0389 9C        		.byte	0x9c
 1620 038a 0000 043F 		.long	0x43f
 1621 038e 16        		.uleb128 0x16
 1622 038f 0000 0000 		.long	.LASF31
 1623 0393 79        		.byte	0x79
 1624 0394 11        		.byte	0x11
 1625 0395 0000 0031 		.long	0x31
 1626 0399 02        		.uleb128 0x2
 1627 039a 91        		.byte	0x91
 1628 039b 00        		.sleb128 0
 1629 039c 05        		.uleb128 0x5
 1630 039d 0000 050F 		.long	0x50f
 1631 03a1 0000 0000 		.long	.LBI74
 1632 03a5 01        		.byte	.LVU229
 1633 03a6 0000 0000 		.long	.LLRL29
 1634 03aa 7D        		.byte	0x7d
 1635 03ab 09        		.byte	0x9
 1636 03ac 02        		.uleb128 0x2
 1637 03ad 0000 0519 		.long	0x519
 1638 03b1 0000 0000 		.long	.LLST30
 1639 03b5 0000 0000 		.long	.LVUS30
 1640 03b9 04        		.uleb128 0x4
 1641 03ba 0000 0000 		.long	.LLRL29
 1642 03be 01        		.uleb128 0x1


 1643 03bf 0000 0523 		.long	0x523
 1644 03c3 0000 0000 		.long	.LLST31
 1645 03c7 0000 0000 		.long	.LVUS31
 1646 03cb 0F        		.uleb128 0xf
 1647 03cc 0000 054C 		.long	0x54c
 1648 03d0 0000 0000 		.long	.LBI76
 1649 03d4 04        		.byte	.LVU232
 1650 03d5 0000 0000 		.long	.LBB76
 1651 03d9 0000 0024 		.long	.LBE76-.LBB76
 1652 03dd 67        		.byte	0x67
 1653 03de 0A        		.byte	0xa
 1654 03df 0000 03FE 		.long	0x3fe
 1655 03e3 02        		.uleb128 0x2
 1656 03e4 0000 055B 		.long	0x55b
 1657 03e8 0000 0000 		.long	.LLST32
 1658 03ec 0000 0000 		.long	.LVUS32
 1659 03f0 01        		.uleb128 0x1
 1660 03f1 0000 0566 		.long	0x566
 1661 03f5 0000 0000 		.long	.LLST33
 1662 03f9 0000 0000 		.long	.LVUS33
 1663 03fd 00        		.byte	0
 1664 03fe 05        		.uleb128 0x5
 1665 03ff 0000 0576 		.long	0x576
 1666 0403 0000 0000 		.long	.LBI78
 1667 0407 04        		.byte	.LVU247
 1668 0408 0000 0000 		.long	.LLRL34
 1669 040c 6B        		.byte	0x6b
 1670 040d 09        		.byte	0x9
 1671 040e 02        		.uleb128 0x2
 1672 040f 0000 058B 		.long	0x58b
 1673 0413 0000 0000 		.long	.LLST35
 1674 0417 0000 0000 		.long	.LVUS35
 1675 041b 02        		.uleb128 0x2
 1676 041c 0000 0580 		.long	0x580
 1677 0420 0000 0000 		.long	.LLST36
 1678 0424 0000 0000 		.long	.LVUS36
 1679 0428 04        		.uleb128 0x4
 1680 0429 0000 0000 		.long	.LLRL34
 1681 042d 01        		.uleb128 0x1
 1682 042e 0000 0595 		.long	0x595
 1683 0432 0000 0000 		.long	.LLST37
 1684 0436 0000 0000 		.long	.LVUS37
 1685 043a 00        		.byte	0
 1686 043b 00        		.byte	0
 1687 043c 00        		.byte	0
 1688 043d 00        		.byte	0
 1689 043e 00        		.byte	0
 1690 043f 09        		.uleb128 0x9
 1691 0440 0000 0000 		.long	.LASF32
 1692 0444 70        		.byte	0x70
 1693 0445 0000 0000 		.long	.LFB5
 1694 0449 0000 00B6 		.long	.LFE5-.LFB5
 1695 044d 01        		.uleb128 0x1
 1696 044e 9C        		.byte	0x9c
 1697 044f 0000 050F 		.long	0x50f
 1698 0453 16        		.uleb128 0x16
 1699 0454 0000 0000 		.long	.LASF31


 1700 0458 70        		.byte	0x70
 1701 0459 11        		.byte	0x11
 1702 045a 0000 0031 		.long	0x31
 1703 045e 02        		.uleb128 0x2
 1704 045f 91        		.byte	0x91
 1705 0460 00        		.sleb128 0
 1706 0461 05        		.uleb128 0x5
 1707 0462 0000 052E 		.long	0x52e
 1708 0466 0000 0000 		.long	.LBI52
 1709 046a 01        		.byte	.LVU162
 1710 046b 0000 0000 		.long	.LLRL19
 1711 046f 74        		.byte	0x74
 1712 0470 09        		.byte	0x9
 1713 0471 02        		.uleb128 0x2
 1714 0472 0000 0538 		.long	0x538
 1715 0476 0000 0000 		.long	.LLST20
 1716 047a 0000 0000 		.long	.LVUS20
 1717 047e 11        		.uleb128 0x11
 1718 047f 0000 0576 		.long	0x576
 1719 0483 0000 0000 		.long	.LBI54
 1720 0487 00        		.byte	.LVU164
 1721 0488 0000 0000 		.long	.LLRL21
 1722 048c 59        		.byte	0x59
 1723 048d 0000 04BF 		.long	0x4bf
 1724 0491 02        		.uleb128 0x2
 1725 0492 0000 058B 		.long	0x58b
 1726 0496 0000 0000 		.long	.LLST22
 1727 049a 0000 0000 		.long	.LVUS22
 1728 049e 02        		.uleb128 0x2
 1729 049f 0000 0580 		.long	0x580
 1730 04a3 0000 0000 		.long	.LLST23
 1731 04a7 0000 0000 		.long	.LVUS23
 1732 04ab 04        		.uleb128 0x4
 1733 04ac 0000 0000 		.long	.LLRL21
 1734 04b0 01        		.uleb128 0x1
 1735 04b1 0000 0595 		.long	0x595
 1736 04b5 0000 0000 		.long	.LLST24
 1737 04b9 0000 0000 		.long	.LVUS24
 1738 04bd 00        		.byte	0
 1739 04be 00        		.byte	0
 1740 04bf 11        		.uleb128 0x11
 1741 04c0 0000 0543 		.long	0x543
 1742 04c4 0000 0000 		.long	.LBI57
 1743 04c8 02        		.byte	.LVU175
 1744 04c9 0000 0000 		.long	.LLRL25
 1745 04cd 5C        		.byte	0x5c
 1746 04ce 0000 0504 		.long	0x504
 1747 04d2 05        		.uleb128 0x5
 1748 04d3 0000 054C 		.long	0x54c
 1749 04d7 0000 0000 		.long	.LBI59
 1750 04db 04        		.byte	.LVU177
 1751 04dc 0000 0000 		.long	.LLRL26
 1752 04e0 4A        		.byte	0x4a
 1753 04e1 11        		.byte	0x11
 1754 04e2 02        		.uleb128 0x2
 1755 04e3 0000 055B 		.long	0x55b
 1756 04e7 0000 0000 		.long	.LLST27


 1757 04eb 0000 0000 		.long	.LVUS27
 1758 04ef 04        		.uleb128 0x4
 1759 04f0 0000 0000 		.long	.LLRL26
 1760 04f4 01        		.uleb128 0x1
 1761 04f5 0000 0566 		.long	0x566
 1762 04f9 0000 0000 		.long	.LLST28
 1763 04fd 0000 0000 		.long	.LVUS28
 1764 0501 00        		.byte	0
 1765 0502 00        		.byte	0
 1766 0503 00        		.byte	0
 1767 0504 14        		.uleb128 0x14
 1768 0505 0000 0000 		.long	.LVL35
 1769 0509 0000 01CC 		.long	0x1cc
 1770 050d 00        		.byte	0
 1771 050e 00        		.byte	0
 1772 050f 17        		.uleb128 0x17
 1773 0510 0000 0000 		.long	.LASF33
 1774 0514 63        		.byte	0x63
 1775 0515 0000 052E 		.long	0x52e
 1776 0519 10        		.uleb128 0x10
 1777 051a 6368 00   		.string	"ch"
 1778 051d 63        		.byte	0x63
 1779 051e 11        		.byte	0x11
 1780 051f 0000 0031 		.long	0x31
 1781 0523 0A        		.uleb128 0xa
 1782 0524 6964 00   		.string	"id"
 1783 0527 64        		.byte	0x64
 1784 0528 12        		.byte	0x12
 1785 0529 0000 0026 		.long	0x26
 1786 052d 00        		.byte	0
 1787 052e 17        		.uleb128 0x17
 1788 052f 0000 0000 		.long	.LASF34
 1789 0533 57        		.byte	0x57
 1790 0534 0000 0543 		.long	0x543
 1791 0538 10        		.uleb128 0x10
 1792 0539 6368 00   		.string	"ch"
 1793 053c 57        		.byte	0x57
 1794 053d 10        		.byte	0x10
 1795 053e 0000 0031 		.long	0x31
 1796 0542 00        		.byte	0
 1797 0543 26        		.uleb128 0x26
 1798 0544 0000 0000 		.long	.LASF35
 1799 0548 01        		.byte	0x1
 1800 0549 48        		.byte	0x48
 1801 054a 06        		.byte	0x6
 1802 054b 01        		.byte	0x1
 1803 054c 1A        		.uleb128 0x1a
 1804 054d 0000 0000 		.long	.LASF37
 1805 0551 31        		.byte	0x31
 1806 0552 0E        		.byte	0xe
 1807 0553 0000 0026 		.long	0x26
 1808 0557 0000 0571 		.long	0x571
 1809 055b 1B        		.uleb128 0x1b
 1810 055c 0000 0000 		.long	.LASF38
 1811 0560 31        		.byte	0x31
 1812 0561 24        		.byte	0x24
 1813 0562 0000 0571 		.long	0x571


 1814 0566 0A        		.uleb128 0xa
 1815 0567 6964 00   		.string	"id"
 1816 056a 32        		.byte	0x32
 1817 056b 12        		.byte	0x12
 1818 056c 0000 0026 		.long	0x26
 1819 0570 00        		.byte	0
 1820 0571 08        		.uleb128 0x8
 1821 0572 0000 0026 		.long	0x26
 1822 0576 17        		.uleb128 0x17
 1823 0577 0000 0000 		.long	.LASF39
 1824 057b 1B        		.byte	0x1b
 1825 057c 0000 05A2 		.long	0x5a2
 1826 0580 1B        		.uleb128 0x1b
 1827 0581 0000 0000 		.long	.LASF38
 1828 0585 1B        		.byte	0x1b
 1829 0586 19        		.byte	0x19
 1830 0587 0000 0571 		.long	0x571
 1831 058b 10        		.uleb128 0x10
 1832 058c 6964 00   		.string	"id"
 1833 058f 1B        		.byte	0x1b
 1834 0590 2C        		.byte	0x2c
 1835 0591 0000 0026 		.long	0x26
 1836 0595 27        		.uleb128 0x27
 1837 0596 0000 0000 		.long	.LASF40
 1838 059a 01        		.byte	0x1
 1839 059b 1C        		.byte	0x1c
 1840 059c 12        		.byte	0x12
 1841 059d 0000 0026 		.long	0x26
 1842 05a1 00        		.byte	0
 1843 05a2 0B        		.uleb128 0xb
 1844 05a3 0000 0576 		.long	0x576
 1845 05a7 0000 0000 		.long	.LFB0
 1846 05ab 0000 0060 		.long	.LFE0-.LFB0
 1847 05af 01        		.uleb128 0x1
 1848 05b0 9C        		.byte	0x9c
 1849 05b1 0000 05D3 		.long	0x5d3
 1850 05b5 07        		.uleb128 0x7
 1851 05b6 0000 0580 		.long	0x580
 1852 05ba 02        		.uleb128 0x2
 1853 05bb 91        		.byte	0x91
 1854 05bc 00        		.sleb128 0
 1855 05bd 07        		.uleb128 0x7
 1856 05be 0000 058B 		.long	0x58b
 1857 05c2 02        		.uleb128 0x2
 1858 05c3 91        		.byte	0x91
 1859 05c4 04        		.sleb128 4
 1860 05c5 01        		.uleb128 0x1
 1861 05c6 0000 0595 		.long	0x595
 1862 05ca 0000 0000 		.long	.LLST0
 1863 05ce 0000 0000 		.long	.LVUS0
 1864 05d2 00        		.byte	0
 1865 05d3 0B        		.uleb128 0xb
 1866 05d4 0000 054C 		.long	0x54c
 1867 05d8 0000 0000 		.long	.LFB1
 1868 05dc 0000 0020 		.long	.LFE1-.LFB1
 1869 05e0 01        		.uleb128 0x1
 1870 05e1 9C        		.byte	0x9c


 1871 05e2 0000 05FC 		.long	0x5fc
 1872 05e6 07        		.uleb128 0x7
 1873 05e7 0000 055B 		.long	0x55b
 1874 05eb 02        		.uleb128 0x2
 1875 05ec 91        		.byte	0x91
 1876 05ed 00        		.sleb128 0
 1877 05ee 01        		.uleb128 0x1
 1878 05ef 0000 0566 		.long	0x566
 1879 05f3 0000 0000 		.long	.LLST1
 1880 05f7 0000 0000 		.long	.LVUS1
 1881 05fb 00        		.byte	0
 1882 05fc 0B        		.uleb128 0xb
 1883 05fd 0000 0543 		.long	0x543
 1884 0601 0000 0000 		.long	.LFB2
 1885 0605 0000 002C 		.long	.LFE2-.LFB2
 1886 0609 01        		.uleb128 0x1
 1887 060a 9C        		.byte	0x9c
 1888 060b 0000 0640 		.long	0x640
 1889 060f 28        		.uleb128 0x28
 1890 0610 0000 054C 		.long	0x54c
 1891 0614 0000 0000 		.long	.LBI12
 1892 0618 02        		.byte	.LVU36
 1893 0619 0000 0000 		.long	.LBB12
 1894 061d 0000 0022 		.long	.LBE12-.LBB12
 1895 0621 01        		.byte	0x1
 1896 0622 4A        		.byte	0x4a
 1897 0623 11        		.byte	0x11
 1898 0624 02        		.uleb128 0x2
 1899 0625 0000 055B 		.long	0x55b
 1900 0629 0000 0000 		.long	.LLST2
 1901 062d 0000 0000 		.long	.LVUS2
 1902 0631 01        		.uleb128 0x1
 1903 0632 0000 0566 		.long	0x566
 1904 0636 0000 0000 		.long	.LLST3
 1905 063a 0000 0000 		.long	.LVUS3
 1906 063e 00        		.byte	0
 1907 063f 00        		.byte	0
 1908 0640 0B        		.uleb128 0xb
 1909 0641 0000 052E 		.long	0x52e
 1910 0645 0000 0000 		.long	.LFB3
 1911 0649 0000 00A6 		.long	.LFE3-.LFB3
 1912 064d 01        		.uleb128 0x1
 1913 064e 9C        		.byte	0x9c
 1914 064f 0000 06EB 		.long	0x6eb
 1915 0653 07        		.uleb128 0x7
 1916 0654 0000 0538 		.long	0x538
 1917 0658 02        		.uleb128 0x2
 1918 0659 91        		.byte	0x91
 1919 065a 00        		.sleb128 0
 1920 065b 11        		.uleb128 0x11
 1921 065c 0000 0576 		.long	0x576
 1922 0660 0000 0000 		.long	.LBI20
 1923 0664 00        		.byte	.LVU59
 1924 0665 0000 0000 		.long	.LLRL4
 1925 0669 59        		.byte	0x59
 1926 066a 0000 069C 		.long	0x69c
 1927 066e 02        		.uleb128 0x2


 1928 066f 0000 058B 		.long	0x58b
 1929 0673 0000 0000 		.long	.LLST5
 1930 0677 0000 0000 		.long	.LVUS5
 1931 067b 02        		.uleb128 0x2
 1932 067c 0000 0580 		.long	0x580
 1933 0680 0000 0000 		.long	.LLST6
 1934 0684 0000 0000 		.long	.LVUS6
 1935 0688 04        		.uleb128 0x4
 1936 0689 0000 0000 		.long	.LLRL4
 1937 068d 01        		.uleb128 0x1
 1938 068e 0000 0595 		.long	0x595
 1939 0692 0000 0000 		.long	.LLST7
 1940 0696 0000 0000 		.long	.LVUS7
 1941 069a 00        		.byte	0
 1942 069b 00        		.byte	0
 1943 069c 11        		.uleb128 0x11
 1944 069d 0000 0543 		.long	0x543
 1945 06a1 0000 0000 		.long	.LBI23
 1946 06a5 02        		.byte	.LVU74
 1947 06a6 0000 0000 		.long	.LLRL8
 1948 06aa 5C        		.byte	0x5c
 1949 06ab 0000 06E1 		.long	0x6e1
 1950 06af 05        		.uleb128 0x5
 1951 06b0 0000 054C 		.long	0x54c
 1952 06b4 0000 0000 		.long	.LBI25
 1953 06b8 04        		.byte	.LVU76
 1954 06b9 0000 0000 		.long	.LLRL9
 1955 06bd 4A        		.byte	0x4a
 1956 06be 11        		.byte	0x11
 1957 06bf 02        		.uleb128 0x2
 1958 06c0 0000 055B 		.long	0x55b
 1959 06c4 0000 0000 		.long	.LLST10
 1960 06c8 0000 0000 		.long	.LVUS10
 1961 06cc 04        		.uleb128 0x4
 1962 06cd 0000 0000 		.long	.LLRL9
 1963 06d1 01        		.uleb128 0x1
 1964 06d2 0000 0566 		.long	0x566
 1965 06d6 0000 0000 		.long	.LLST11
 1966 06da 0000 0000 		.long	.LVUS11
 1967 06de 00        		.byte	0
 1968 06df 00        		.byte	0
 1969 06e0 00        		.byte	0
 1970 06e1 14        		.uleb128 0x14
 1971 06e2 0000 0000 		.long	.LVL18
 1972 06e6 0000 01CC 		.long	0x1cc
 1973 06ea 00        		.byte	0
 1974 06eb 0B        		.uleb128 0xb
 1975 06ec 0000 050F 		.long	0x50f
 1976 06f0 0000 0000 		.long	.LFB4
 1977 06f4 0000 008A 		.long	.LFE4-.LFB4
 1978 06f8 01        		.uleb128 0x1
 1979 06f9 9C        		.byte	0x9c
 1980 06fa 0000 0785 		.long	0x785
 1981 06fe 07        		.uleb128 0x7
 1982 06ff 0000 0519 		.long	0x519
 1983 0703 02        		.uleb128 0x2
 1984 0704 91        		.byte	0x91


 1985 0705 00        		.sleb128 0
 1986 0706 01        		.uleb128 0x1
 1987 0707 0000 0523 		.long	0x523
 1988 070b 0000 0000 		.long	.LLST12
 1989 070f 0000 0000 		.long	.LVUS12
 1990 0713 0F        		.uleb128 0xf
 1991 0714 0000 054C 		.long	0x54c
 1992 0718 0000 0000 		.long	.LBI38
 1993 071c 02        		.byte	.LVU118
 1994 071d 0000 0000 		.long	.LBB38
 1995 0721 0000 0032 		.long	.LBE38-.LBB38
 1996 0725 67        		.byte	0x67
 1997 0726 0A        		.byte	0xa
 1998 0727 0000 0746 		.long	0x746
 1999 072b 02        		.uleb128 0x2
 2000 072c 0000 055B 		.long	0x55b
 2001 0730 0000 0000 		.long	.LLST13
 2002 0734 0000 0000 		.long	.LVUS13
 2003 0738 01        		.uleb128 0x1
 2004 0739 0000 0566 		.long	0x566
 2005 073d 0000 0000 		.long	.LLST14
 2006 0741 0000 0000 		.long	.LVUS14
 2007 0745 00        		.byte	0
 2008 0746 05        		.uleb128 0x5
 2009 0747 0000 0576 		.long	0x576
 2010 074b 0000 0000 		.long	.LBI40
 2011 074f 04        		.byte	.LVU133
 2012 0750 0000 0000 		.long	.LLRL15
 2013 0754 6B        		.byte	0x6b
 2014 0755 09        		.byte	0x9
 2015 0756 02        		.uleb128 0x2
 2016 0757 0000 058B 		.long	0x58b
 2017 075b 0000 0000 		.long	.LLST16
 2018 075f 0000 0000 		.long	.LVUS16
 2019 0763 02        		.uleb128 0x2
 2020 0764 0000 0580 		.long	0x580
 2021 0768 0000 0000 		.long	.LLST17
 2022 076c 0000 0000 		.long	.LVUS17
 2023 0770 04        		.uleb128 0x4
 2024 0771 0000 0000 		.long	.LLRL15
 2025 0775 01        		.uleb128 0x1
 2026 0776 0000 0595 		.long	0x595
 2027 077a 0000 0000 		.long	.LLST18
 2028 077e 0000 0000 		.long	.LVUS18
 2029 0782 00        		.byte	0
 2030 0783 00        		.byte	0
 2031 0784 00        		.byte	0
 2032 0785 29        		.uleb128 0x29
 2033 0786 0000 0323 		.long	0x323
 2034 078a 0000 0000 		.long	.LFB7
 2035 078e 0000 0042 		.long	.LFE7-.LFB7
 2036 0792 01        		.uleb128 0x1
 2037 0793 9C        		.byte	0x9c
 2038 0794 07        		.uleb128 0x7
 2039 0795 0000 0332 		.long	0x332
 2040 0799 02        		.uleb128 0x2
 2041 079a 91        		.byte	0x91


 2042 079b 00        		.sleb128 0
 2043 079c 01        		.uleb128 0x1
 2044 079d 0000 033C 		.long	0x33c
 2045 07a1 0000 0000 		.long	.LLST38
 2046 07a5 0000 0000 		.long	.LVUS38
 2047 07a9 01        		.uleb128 0x1
 2048 07aa 0000 0346 		.long	0x346
 2049 07ae 0000 0000 		.long	.LLST39
 2050 07b2 0000 0000 		.long	.LVUS39
 2051 07b6 01        		.uleb128 0x1
 2052 07b7 0000 0351 		.long	0x351
 2053 07bb 0000 0000 		.long	.LLST40
 2054 07bf 0000 0000 		.long	.LVUS40
 2055 07c3 00        		.byte	0
 2056 07c4 00        		.byte	0
 2057               		.section	.debug_abbrev,"",@progbits
 2058               	.Ldebug_abbrev0:
 2059 0000 01        		.uleb128 0x1
 2060 0001 34        		.uleb128 0x34
 2061 0002 00        		.byte	0
 2062 0003 31        		.uleb128 0x31
 2063 0004 13        		.uleb128 0x13
 2064 0005 02        		.uleb128 0x2
 2065 0006 17        		.uleb128 0x17
 2066 0007 B742      		.uleb128 0x2137
 2067 0009 17        		.uleb128 0x17
 2068 000a 00        		.byte	0
 2069 000b 00        		.byte	0
 2070 000c 02        		.uleb128 0x2
 2071 000d 05        		.uleb128 0x5
 2072 000e 00        		.byte	0
 2073 000f 31        		.uleb128 0x31
 2074 0010 13        		.uleb128 0x13
 2075 0011 02        		.uleb128 0x2
 2076 0012 17        		.uleb128 0x17
 2077 0013 B742      		.uleb128 0x2137
 2078 0015 17        		.uleb128 0x17
 2079 0016 00        		.byte	0
 2080 0017 00        		.byte	0
 2081 0018 03        		.uleb128 0x3
 2082 0019 0D        		.uleb128 0xd
 2083 001a 00        		.byte	0
 2084 001b 03        		.uleb128 0x3
 2085 001c 0E        		.uleb128 0xe
 2086 001d 3A        		.uleb128 0x3a
 2087 001e 21        		.uleb128 0x21
 2088 001f 02        		.sleb128 2
 2089 0020 3B        		.uleb128 0x3b
 2090 0021 0B        		.uleb128 0xb
 2091 0022 39        		.uleb128 0x39
 2092 0023 0B        		.uleb128 0xb
 2093 0024 49        		.uleb128 0x49
 2094 0025 13        		.uleb128 0x13
 2095 0026 38        		.uleb128 0x38
 2096 0027 0B        		.uleb128 0xb
 2097 0028 00        		.byte	0
 2098 0029 00        		.byte	0


 2099 002a 04        		.uleb128 0x4
 2100 002b 0B        		.uleb128 0xb
 2101 002c 01        		.byte	0x1
 2102 002d 55        		.uleb128 0x55
 2103 002e 17        		.uleb128 0x17
 2104 002f 00        		.byte	0
 2105 0030 00        		.byte	0
 2106 0031 05        		.uleb128 0x5
 2107 0032 1D        		.uleb128 0x1d
 2108 0033 01        		.byte	0x1
 2109 0034 31        		.uleb128 0x31
 2110 0035 13        		.uleb128 0x13
 2111 0036 52        		.uleb128 0x52
 2112 0037 01        		.uleb128 0x1
 2113 0038 B842      		.uleb128 0x2138
 2114 003a 0B        		.uleb128 0xb
 2115 003b 55        		.uleb128 0x55
 2116 003c 17        		.uleb128 0x17
 2117 003d 58        		.uleb128 0x58
 2118 003e 21        		.uleb128 0x21
 2119 003f 01        		.sleb128 1
 2120 0040 59        		.uleb128 0x59
 2121 0041 0B        		.uleb128 0xb
 2122 0042 57        		.uleb128 0x57
 2123 0043 0B        		.uleb128 0xb
 2124 0044 00        		.byte	0
 2125 0045 00        		.byte	0
 2126 0046 06        		.uleb128 0x6
 2127 0047 34        		.uleb128 0x34
 2128 0048 00        		.byte	0
 2129 0049 03        		.uleb128 0x3
 2130 004a 0E        		.uleb128 0xe
 2131 004b 3A        		.uleb128 0x3a
 2132 004c 21        		.uleb128 0x21
 2133 004d 01        		.sleb128 1
 2134 004e 3B        		.uleb128 0x3b
 2135 004f 0B        		.uleb128 0xb
 2136 0050 39        		.uleb128 0x39
 2137 0051 0B        		.uleb128 0xb
 2138 0052 49        		.uleb128 0x49
 2139 0053 13        		.uleb128 0x13
 2140 0054 3F        		.uleb128 0x3f
 2141 0055 19        		.uleb128 0x19
 2142 0056 02        		.uleb128 0x2
 2143 0057 18        		.uleb128 0x18
 2144 0058 00        		.byte	0
 2145 0059 00        		.byte	0
 2146 005a 07        		.uleb128 0x7
 2147 005b 05        		.uleb128 0x5
 2148 005c 00        		.byte	0
 2149 005d 31        		.uleb128 0x31
 2150 005e 13        		.uleb128 0x13
 2151 005f 02        		.uleb128 0x2
 2152 0060 18        		.uleb128 0x18
 2153 0061 00        		.byte	0
 2154 0062 00        		.byte	0
 2155 0063 08        		.uleb128 0x8


 2156 0064 0F        		.uleb128 0xf
 2157 0065 00        		.byte	0
 2158 0066 0B        		.uleb128 0xb
 2159 0067 21        		.uleb128 0x21
 2160 0068 04        		.sleb128 4
 2161 0069 49        		.uleb128 0x49
 2162 006a 13        		.uleb128 0x13
 2163 006b 00        		.byte	0
 2164 006c 00        		.byte	0
 2165 006d 09        		.uleb128 0x9
 2166 006e 2E        		.uleb128 0x2e
 2167 006f 01        		.byte	0x1
 2168 0070 3F        		.uleb128 0x3f
 2169 0071 19        		.uleb128 0x19
 2170 0072 03        		.uleb128 0x3
 2171 0073 0E        		.uleb128 0xe
 2172 0074 3A        		.uleb128 0x3a
 2173 0075 21        		.uleb128 0x21
 2174 0076 01        		.sleb128 1
 2175 0077 3B        		.uleb128 0x3b
 2176 0078 0B        		.uleb128 0xb
 2177 0079 39        		.uleb128 0x39
 2178 007a 21        		.uleb128 0x21
 2179 007b 06        		.sleb128 6
 2180 007c 27        		.uleb128 0x27
 2181 007d 19        		.uleb128 0x19
 2182 007e 11        		.uleb128 0x11
 2183 007f 01        		.uleb128 0x1
 2184 0080 12        		.uleb128 0x12
 2185 0081 06        		.uleb128 0x6
 2186 0082 40        		.uleb128 0x40
 2187 0083 18        		.uleb128 0x18
 2188 0084 7A        		.uleb128 0x7a
 2189 0085 19        		.uleb128 0x19
 2190 0086 01        		.uleb128 0x1
 2191 0087 13        		.uleb128 0x13
 2192 0088 00        		.byte	0
 2193 0089 00        		.byte	0
 2194 008a 0A        		.uleb128 0xa
 2195 008b 34        		.uleb128 0x34
 2196 008c 00        		.byte	0
 2197 008d 03        		.uleb128 0x3
 2198 008e 08        		.uleb128 0x8
 2199 008f 3A        		.uleb128 0x3a
 2200 0090 21        		.uleb128 0x21
 2201 0091 01        		.sleb128 1
 2202 0092 3B        		.uleb128 0x3b
 2203 0093 0B        		.uleb128 0xb
 2204 0094 39        		.uleb128 0x39
 2205 0095 0B        		.uleb128 0xb
 2206 0096 49        		.uleb128 0x49
 2207 0097 13        		.uleb128 0x13
 2208 0098 00        		.byte	0
 2209 0099 00        		.byte	0
 2210 009a 0B        		.uleb128 0xb
 2211 009b 2E        		.uleb128 0x2e
 2212 009c 01        		.byte	0x1


 2213 009d 31        		.uleb128 0x31
 2214 009e 13        		.uleb128 0x13
 2215 009f 11        		.uleb128 0x11
 2216 00a0 01        		.uleb128 0x1
 2217 00a1 12        		.uleb128 0x12
 2218 00a2 06        		.uleb128 0x6
 2219 00a3 40        		.uleb128 0x40
 2220 00a4 18        		.uleb128 0x18
 2221 00a5 7A        		.uleb128 0x7a
 2222 00a6 19        		.uleb128 0x19
 2223 00a7 01        		.uleb128 0x1
 2224 00a8 13        		.uleb128 0x13
 2225 00a9 00        		.byte	0
 2226 00aa 00        		.byte	0
 2227 00ab 0C        		.uleb128 0xc
 2228 00ac 16        		.uleb128 0x16
 2229 00ad 00        		.byte	0
 2230 00ae 03        		.uleb128 0x3
 2231 00af 0E        		.uleb128 0xe
 2232 00b0 3A        		.uleb128 0x3a
 2233 00b1 21        		.uleb128 0x21
 2234 00b2 02        		.sleb128 2
 2235 00b3 3B        		.uleb128 0x3b
 2236 00b4 0B        		.uleb128 0xb
 2237 00b5 39        		.uleb128 0x39
 2238 00b6 0B        		.uleb128 0xb
 2239 00b7 49        		.uleb128 0x49
 2240 00b8 13        		.uleb128 0x13
 2241 00b9 00        		.byte	0
 2242 00ba 00        		.byte	0
 2243 00bb 0D        		.uleb128 0xd
 2244 00bc 01        		.uleb128 0x1
 2245 00bd 01        		.byte	0x1
 2246 00be 49        		.uleb128 0x49
 2247 00bf 13        		.uleb128 0x13
 2248 00c0 01        		.uleb128 0x1
 2249 00c1 13        		.uleb128 0x13
 2250 00c2 00        		.byte	0
 2251 00c3 00        		.byte	0
 2252 00c4 0E        		.uleb128 0xe
 2253 00c5 24        		.uleb128 0x24
 2254 00c6 00        		.byte	0
 2255 00c7 0B        		.uleb128 0xb
 2256 00c8 0B        		.uleb128 0xb
 2257 00c9 3E        		.uleb128 0x3e
 2258 00ca 0B        		.uleb128 0xb
 2259 00cb 03        		.uleb128 0x3
 2260 00cc 0E        		.uleb128 0xe
 2261 00cd 00        		.byte	0
 2262 00ce 00        		.byte	0
 2263 00cf 0F        		.uleb128 0xf
 2264 00d0 1D        		.uleb128 0x1d
 2265 00d1 01        		.byte	0x1
 2266 00d2 31        		.uleb128 0x31
 2267 00d3 13        		.uleb128 0x13
 2268 00d4 52        		.uleb128 0x52
 2269 00d5 01        		.uleb128 0x1


 2270 00d6 B842      		.uleb128 0x2138
 2271 00d8 0B        		.uleb128 0xb
 2272 00d9 11        		.uleb128 0x11
 2273 00da 01        		.uleb128 0x1
 2274 00db 12        		.uleb128 0x12
 2275 00dc 06        		.uleb128 0x6
 2276 00dd 58        		.uleb128 0x58
 2277 00de 21        		.uleb128 0x21
 2278 00df 01        		.sleb128 1
 2279 00e0 59        		.uleb128 0x59
 2280 00e1 0B        		.uleb128 0xb
 2281 00e2 57        		.uleb128 0x57
 2282 00e3 0B        		.uleb128 0xb
 2283 00e4 01        		.uleb128 0x1
 2284 00e5 13        		.uleb128 0x13
 2285 00e6 00        		.byte	0
 2286 00e7 00        		.byte	0
 2287 00e8 10        		.uleb128 0x10
 2288 00e9 05        		.uleb128 0x5
 2289 00ea 00        		.byte	0
 2290 00eb 03        		.uleb128 0x3
 2291 00ec 08        		.uleb128 0x8
 2292 00ed 3A        		.uleb128 0x3a
 2293 00ee 21        		.uleb128 0x21
 2294 00ef 01        		.sleb128 1
 2295 00f0 3B        		.uleb128 0x3b
 2296 00f1 0B        		.uleb128 0xb
 2297 00f2 39        		.uleb128 0x39
 2298 00f3 0B        		.uleb128 0xb
 2299 00f4 49        		.uleb128 0x49
 2300 00f5 13        		.uleb128 0x13
 2301 00f6 00        		.byte	0
 2302 00f7 00        		.byte	0
 2303 00f8 11        		.uleb128 0x11
 2304 00f9 1D        		.uleb128 0x1d
 2305 00fa 01        		.byte	0x1
 2306 00fb 31        		.uleb128 0x31
 2307 00fc 13        		.uleb128 0x13
 2308 00fd 52        		.uleb128 0x52
 2309 00fe 01        		.uleb128 0x1
 2310 00ff B842      		.uleb128 0x2138
 2311 0101 0B        		.uleb128 0xb
 2312 0102 55        		.uleb128 0x55
 2313 0103 17        		.uleb128 0x17
 2314 0104 58        		.uleb128 0x58
 2315 0105 21        		.uleb128 0x21
 2316 0106 01        		.sleb128 1
 2317 0107 59        		.uleb128 0x59
 2318 0108 0B        		.uleb128 0xb
 2319 0109 57        		.uleb128 0x57
 2320 010a 21        		.uleb128 0x21
 2321 010b 05        		.sleb128 5
 2322 010c 01        		.uleb128 0x1
 2323 010d 13        		.uleb128 0x13
 2324 010e 00        		.byte	0
 2325 010f 00        		.byte	0
 2326 0110 12        		.uleb128 0x12


 2327 0111 21        		.uleb128 0x21
 2328 0112 00        		.byte	0
 2329 0113 49        		.uleb128 0x49
 2330 0114 13        		.uleb128 0x13
 2331 0115 2F        		.uleb128 0x2f
 2332 0116 0B        		.uleb128 0xb
 2333 0117 00        		.byte	0
 2334 0118 00        		.byte	0
 2335 0119 13        		.uleb128 0x13
 2336 011a 2E        		.uleb128 0x2e
 2337 011b 00        		.byte	0
 2338 011c 3F        		.uleb128 0x3f
 2339 011d 19        		.uleb128 0x19
 2340 011e 03        		.uleb128 0x3
 2341 011f 0E        		.uleb128 0xe
 2342 0120 3A        		.uleb128 0x3a
 2343 0121 21        		.uleb128 0x21
 2344 0122 02        		.sleb128 2
 2345 0123 3B        		.uleb128 0x3b
 2346 0124 0B        		.uleb128 0xb
 2347 0125 39        		.uleb128 0x39
 2348 0126 21        		.uleb128 0x21
 2349 0127 06        		.sleb128 6
 2350 0128 27        		.uleb128 0x27
 2351 0129 19        		.uleb128 0x19
 2352 012a 3C        		.uleb128 0x3c
 2353 012b 19        		.uleb128 0x19
 2354 012c 00        		.byte	0
 2355 012d 00        		.byte	0
 2356 012e 14        		.uleb128 0x14
 2357 012f 48        		.uleb128 0x48
 2358 0130 00        		.byte	0
 2359 0131 7D        		.uleb128 0x7d
 2360 0132 01        		.uleb128 0x1
 2361 0133 8201      		.uleb128 0x82
 2362 0135 19        		.uleb128 0x19
 2363 0136 7F        		.uleb128 0x7f
 2364 0137 13        		.uleb128 0x13
 2365 0138 00        		.byte	0
 2366 0139 00        		.byte	0
 2367 013a 15        		.uleb128 0x15
 2368 013b 34        		.uleb128 0x34
 2369 013c 00        		.byte	0
 2370 013d 03        		.uleb128 0x3
 2371 013e 08        		.uleb128 0x8
 2372 013f 3A        		.uleb128 0x3a
 2373 0140 21        		.uleb128 0x21
 2374 0141 01        		.sleb128 1
 2375 0142 3B        		.uleb128 0x3b
 2376 0143 0B        		.uleb128 0xb
 2377 0144 39        		.uleb128 0x39
 2378 0145 0B        		.uleb128 0xb
 2379 0146 49        		.uleb128 0x49
 2380 0147 13        		.uleb128 0x13
 2381 0148 02        		.uleb128 0x2
 2382 0149 17        		.uleb128 0x17
 2383 014a B742      		.uleb128 0x2137


 2384 014c 17        		.uleb128 0x17
 2385 014d 00        		.byte	0
 2386 014e 00        		.byte	0
 2387 014f 16        		.uleb128 0x16
 2388 0150 05        		.uleb128 0x5
 2389 0151 00        		.byte	0
 2390 0152 03        		.uleb128 0x3
 2391 0153 0E        		.uleb128 0xe
 2392 0154 3A        		.uleb128 0x3a
 2393 0155 21        		.uleb128 0x21
 2394 0156 01        		.sleb128 1
 2395 0157 3B        		.uleb128 0x3b
 2396 0158 0B        		.uleb128 0xb
 2397 0159 39        		.uleb128 0x39
 2398 015a 0B        		.uleb128 0xb
 2399 015b 49        		.uleb128 0x49
 2400 015c 13        		.uleb128 0x13
 2401 015d 02        		.uleb128 0x2
 2402 015e 18        		.uleb128 0x18
 2403 015f 00        		.byte	0
 2404 0160 00        		.byte	0
 2405 0161 17        		.uleb128 0x17
 2406 0162 2E        		.uleb128 0x2e
 2407 0163 01        		.byte	0x1
 2408 0164 3F        		.uleb128 0x3f
 2409 0165 19        		.uleb128 0x19
 2410 0166 03        		.uleb128 0x3
 2411 0167 0E        		.uleb128 0xe
 2412 0168 3A        		.uleb128 0x3a
 2413 0169 21        		.uleb128 0x21
 2414 016a 01        		.sleb128 1
 2415 016b 3B        		.uleb128 0x3b
 2416 016c 0B        		.uleb128 0xb
 2417 016d 39        		.uleb128 0x39
 2418 016e 21        		.uleb128 0x21
 2419 016f 06        		.sleb128 6
 2420 0170 27        		.uleb128 0x27
 2421 0171 19        		.uleb128 0x19
 2422 0172 20        		.uleb128 0x20
 2423 0173 21        		.uleb128 0x21
 2424 0174 01        		.sleb128 1
 2425 0175 01        		.uleb128 0x1
 2426 0176 13        		.uleb128 0x13
 2427 0177 00        		.byte	0
 2428 0178 00        		.byte	0
 2429 0179 18        		.uleb128 0x18
 2430 017a 13        		.uleb128 0x13
 2431 017b 01        		.byte	0x1
 2432 017c 0B        		.uleb128 0xb
 2433 017d 0B        		.uleb128 0xb
 2434 017e 3A        		.uleb128 0x3a
 2435 017f 21        		.uleb128 0x21
 2436 0180 02        		.sleb128 2
 2437 0181 3B        		.uleb128 0x3b
 2438 0182 0B        		.uleb128 0xb
 2439 0183 39        		.uleb128 0x39
 2440 0184 21        		.uleb128 0x21


 2441 0185 09        		.sleb128 9
 2442 0186 01        		.uleb128 0x1
 2443 0187 13        		.uleb128 0x13
 2444 0188 00        		.byte	0
 2445 0189 00        		.byte	0
 2446 018a 19        		.uleb128 0x19
 2447 018b 18        		.uleb128 0x18
 2448 018c 00        		.byte	0
 2449 018d 00        		.byte	0
 2450 018e 00        		.byte	0
 2451 018f 1A        		.uleb128 0x1a
 2452 0190 2E        		.uleb128 0x2e
 2453 0191 01        		.byte	0x1
 2454 0192 3F        		.uleb128 0x3f
 2455 0193 19        		.uleb128 0x19
 2456 0194 03        		.uleb128 0x3
 2457 0195 0E        		.uleb128 0xe
 2458 0196 3A        		.uleb128 0x3a
 2459 0197 21        		.uleb128 0x21
 2460 0198 01        		.sleb128 1
 2461 0199 3B        		.uleb128 0x3b
 2462 019a 0B        		.uleb128 0xb
 2463 019b 39        		.uleb128 0x39
 2464 019c 0B        		.uleb128 0xb
 2465 019d 27        		.uleb128 0x27
 2466 019e 19        		.uleb128 0x19
 2467 019f 49        		.uleb128 0x49
 2468 01a0 13        		.uleb128 0x13
 2469 01a1 20        		.uleb128 0x20
 2470 01a2 21        		.uleb128 0x21
 2471 01a3 01        		.sleb128 1
 2472 01a4 01        		.uleb128 0x1
 2473 01a5 13        		.uleb128 0x13
 2474 01a6 00        		.byte	0
 2475 01a7 00        		.byte	0
 2476 01a8 1B        		.uleb128 0x1b
 2477 01a9 05        		.uleb128 0x5
 2478 01aa 00        		.byte	0
 2479 01ab 03        		.uleb128 0x3
 2480 01ac 0E        		.uleb128 0xe
 2481 01ad 3A        		.uleb128 0x3a
 2482 01ae 21        		.uleb128 0x21
 2483 01af 01        		.sleb128 1
 2484 01b0 3B        		.uleb128 0x3b
 2485 01b1 0B        		.uleb128 0xb
 2486 01b2 39        		.uleb128 0x39
 2487 01b3 0B        		.uleb128 0xb
 2488 01b4 49        		.uleb128 0x49
 2489 01b5 13        		.uleb128 0x13
 2490 01b6 00        		.byte	0
 2491 01b7 00        		.byte	0
 2492 01b8 1C        		.uleb128 0x1c
 2493 01b9 11        		.uleb128 0x11
 2494 01ba 01        		.byte	0x1
 2495 01bb 25        		.uleb128 0x25
 2496 01bc 0E        		.uleb128 0xe
 2497 01bd 13        		.uleb128 0x13


 2498 01be 0B        		.uleb128 0xb
 2499 01bf 03        		.uleb128 0x3
 2500 01c0 0E        		.uleb128 0xe
 2501 01c1 1B        		.uleb128 0x1b
 2502 01c2 0E        		.uleb128 0xe
 2503 01c3 11        		.uleb128 0x11
 2504 01c4 01        		.uleb128 0x1
 2505 01c5 12        		.uleb128 0x12
 2506 01c6 06        		.uleb128 0x6
 2507 01c7 10        		.uleb128 0x10
 2508 01c8 17        		.uleb128 0x17
 2509 01c9 00        		.byte	0
 2510 01ca 00        		.byte	0
 2511 01cb 1D        		.uleb128 0x1d
 2512 01cc 24        		.uleb128 0x24
 2513 01cd 00        		.byte	0
 2514 01ce 0B        		.uleb128 0xb
 2515 01cf 0B        		.uleb128 0xb
 2516 01d0 3E        		.uleb128 0x3e
 2517 01d1 0B        		.uleb128 0xb
 2518 01d2 03        		.uleb128 0x3
 2519 01d3 08        		.uleb128 0x8
 2520 01d4 00        		.byte	0
 2521 01d5 00        		.byte	0
 2522 01d6 1E        		.uleb128 0x1e
 2523 01d7 0D        		.uleb128 0xd
 2524 01d8 00        		.byte	0
 2525 01d9 03        		.uleb128 0x3
 2526 01da 08        		.uleb128 0x8
 2527 01db 3A        		.uleb128 0x3a
 2528 01dc 0B        		.uleb128 0xb
 2529 01dd 3B        		.uleb128 0x3b
 2530 01de 0B        		.uleb128 0xb
 2531 01df 39        		.uleb128 0x39
 2532 01e0 0B        		.uleb128 0xb
 2533 01e1 49        		.uleb128 0x49
 2534 01e2 13        		.uleb128 0x13
 2535 01e3 38        		.uleb128 0x38
 2536 01e4 0B        		.uleb128 0xb
 2537 01e5 00        		.byte	0
 2538 01e6 00        		.byte	0
 2539 01e7 1F        		.uleb128 0x1f
 2540 01e8 15        		.uleb128 0x15
 2541 01e9 01        		.byte	0x1
 2542 01ea 01        		.uleb128 0x1
 2543 01eb 13        		.uleb128 0x13
 2544 01ec 00        		.byte	0
 2545 01ed 00        		.byte	0
 2546 01ee 20        		.uleb128 0x20
 2547 01ef 0F        		.uleb128 0xf
 2548 01f0 00        		.byte	0
 2549 01f1 0B        		.uleb128 0xb
 2550 01f2 0B        		.uleb128 0xb
 2551 01f3 00        		.byte	0
 2552 01f4 00        		.byte	0
 2553 01f5 21        		.uleb128 0x21
 2554 01f6 13        		.uleb128 0x13


 2555 01f7 01        		.byte	0x1
 2556 01f8 0B        		.uleb128 0xb
 2557 01f9 05        		.uleb128 0x5
 2558 01fa 3A        		.uleb128 0x3a
 2559 01fb 0B        		.uleb128 0xb
 2560 01fc 3B        		.uleb128 0x3b
 2561 01fd 0B        		.uleb128 0xb
 2562 01fe 39        		.uleb128 0x39
 2563 01ff 0B        		.uleb128 0xb
 2564 0200 01        		.uleb128 0x1
 2565 0201 13        		.uleb128 0x13
 2566 0202 00        		.byte	0
 2567 0203 00        		.byte	0
 2568 0204 22        		.uleb128 0x22
 2569 0205 0D        		.uleb128 0xd
 2570 0206 00        		.byte	0
 2571 0207 03        		.uleb128 0x3
 2572 0208 0E        		.uleb128 0xe
 2573 0209 3A        		.uleb128 0x3a
 2574 020a 0B        		.uleb128 0xb
 2575 020b 3B        		.uleb128 0x3b
 2576 020c 0B        		.uleb128 0xb
 2577 020d 39        		.uleb128 0x39
 2578 020e 0B        		.uleb128 0xb
 2579 020f 49        		.uleb128 0x49
 2580 0210 13        		.uleb128 0x13
 2581 0211 38        		.uleb128 0x38
 2582 0212 05        		.uleb128 0x5
 2583 0213 00        		.byte	0
 2584 0214 00        		.byte	0
 2585 0215 23        		.uleb128 0x23
 2586 0216 21        		.uleb128 0x21
 2587 0217 00        		.byte	0
 2588 0218 49        		.uleb128 0x49
 2589 0219 13        		.uleb128 0x13
 2590 021a 2F        		.uleb128 0x2f
 2591 021b 05        		.uleb128 0x5
 2592 021c 00        		.byte	0
 2593 021d 00        		.byte	0
 2594 021e 24        		.uleb128 0x24
 2595 021f 2E        		.uleb128 0x2e
 2596 0220 01        		.byte	0x1
 2597 0221 3F        		.uleb128 0x3f
 2598 0222 19        		.uleb128 0x19
 2599 0223 03        		.uleb128 0x3
 2600 0224 0E        		.uleb128 0xe
 2601 0225 3A        		.uleb128 0x3a
 2602 0226 0B        		.uleb128 0xb
 2603 0227 3B        		.uleb128 0x3b
 2604 0228 0B        		.uleb128 0xb
 2605 0229 39        		.uleb128 0x39
 2606 022a 0B        		.uleb128 0xb
 2607 022b 3C        		.uleb128 0x3c
 2608 022c 19        		.uleb128 0x19
 2609 022d 01        		.uleb128 0x1
 2610 022e 13        		.uleb128 0x13
 2611 022f 00        		.byte	0


 2612 0230 00        		.byte	0
 2613 0231 25        		.uleb128 0x25
 2614 0232 48        		.uleb128 0x48
 2615 0233 00        		.byte	0
 2616 0234 7D        		.uleb128 0x7d
 2617 0235 01        		.uleb128 0x1
 2618 0236 7F        		.uleb128 0x7f
 2619 0237 13        		.uleb128 0x13
 2620 0238 00        		.byte	0
 2621 0239 00        		.byte	0
 2622 023a 26        		.uleb128 0x26
 2623 023b 2E        		.uleb128 0x2e
 2624 023c 00        		.byte	0
 2625 023d 3F        		.uleb128 0x3f
 2626 023e 19        		.uleb128 0x19
 2627 023f 03        		.uleb128 0x3
 2628 0240 0E        		.uleb128 0xe
 2629 0241 3A        		.uleb128 0x3a
 2630 0242 0B        		.uleb128 0xb
 2631 0243 3B        		.uleb128 0x3b
 2632 0244 0B        		.uleb128 0xb
 2633 0245 39        		.uleb128 0x39
 2634 0246 0B        		.uleb128 0xb
 2635 0247 27        		.uleb128 0x27
 2636 0248 19        		.uleb128 0x19
 2637 0249 20        		.uleb128 0x20
 2638 024a 0B        		.uleb128 0xb
 2639 024b 00        		.byte	0
 2640 024c 00        		.byte	0
 2641 024d 27        		.uleb128 0x27
 2642 024e 34        		.uleb128 0x34
 2643 024f 00        		.byte	0
 2644 0250 03        		.uleb128 0x3
 2645 0251 0E        		.uleb128 0xe
 2646 0252 3A        		.uleb128 0x3a
 2647 0253 0B        		.uleb128 0xb
 2648 0254 3B        		.uleb128 0x3b
 2649 0255 0B        		.uleb128 0xb
 2650 0256 39        		.uleb128 0x39
 2651 0257 0B        		.uleb128 0xb
 2652 0258 49        		.uleb128 0x49
 2653 0259 13        		.uleb128 0x13
 2654 025a 00        		.byte	0
 2655 025b 00        		.byte	0
 2656 025c 28        		.uleb128 0x28
 2657 025d 1D        		.uleb128 0x1d
 2658 025e 01        		.byte	0x1
 2659 025f 31        		.uleb128 0x31
 2660 0260 13        		.uleb128 0x13
 2661 0261 52        		.uleb128 0x52
 2662 0262 01        		.uleb128 0x1
 2663 0263 B842      		.uleb128 0x2138
 2664 0265 0B        		.uleb128 0xb
 2665 0266 11        		.uleb128 0x11
 2666 0267 01        		.uleb128 0x1
 2667 0268 12        		.uleb128 0x12
 2668 0269 06        		.uleb128 0x6


 2669 026a 58        		.uleb128 0x58
 2670 026b 0B        		.uleb128 0xb
 2671 026c 59        		.uleb128 0x59
 2672 026d 0B        		.uleb128 0xb
 2673 026e 57        		.uleb128 0x57
 2674 026f 0B        		.uleb128 0xb
 2675 0270 00        		.byte	0
 2676 0271 00        		.byte	0
 2677 0272 29        		.uleb128 0x29
 2678 0273 2E        		.uleb128 0x2e
 2679 0274 01        		.byte	0x1
 2680 0275 31        		.uleb128 0x31
 2681 0276 13        		.uleb128 0x13
 2682 0277 11        		.uleb128 0x11
 2683 0278 01        		.uleb128 0x1
 2684 0279 12        		.uleb128 0x12
 2685 027a 06        		.uleb128 0x6
 2686 027b 40        		.uleb128 0x40
 2687 027c 18        		.uleb128 0x18
 2688 027d 7A        		.uleb128 0x7a
 2689 027e 19        		.uleb128 0x19
 2690 027f 00        		.byte	0
 2691 0280 00        		.byte	0
 2692 0281 00        		.byte	0
 2693               		.section	.debug_loclists,"",@progbits
 2694 0000 0000 044B 		.long	.Ldebug_loc3-.Ldebug_loc2
 2695               	.Ldebug_loc2:
 2696 0004 0005      		.word	0x5
 2697 0006 04        		.byte	0x4
 2698 0007 00        		.byte	0
 2699 0008 0000 0000 		.long	0
 2700               	.Ldebug_loc0:
 2701               	.LVUS52:
 2702 000c 02        		.uleb128 .LVU389
 2703 000d 01        		.uleb128 .LVU401
 2704               	.LLST52:
 2705 000e 04        		.byte	0x4
 2706 000f 8409      		.uleb128 .LVL76-.Ltext0
 2707 0011 A609      		.uleb128 .LVL78-.Ltext0
 2708 0013 06        		.uleb128 0x6
 2709 0014 03        		.byte	0x3
 2710 0015 0000 0000 		.long	ready
 2711 0019 9F        		.byte	0x9f
 2712 001a 00        		.byte	0
 2713               	.LVUS53:
 2714 001b 01        		.uleb128 .LVU395
 2715 001c 01        		.uleb128 .LVU401
 2716               	.LLST53:
 2717 001d 04        		.byte	0x4
 2718 001e 8C09      		.uleb128 .LVL77-.Ltext0
 2719 0020 A609      		.uleb128 .LVL78-.Ltext0
 2720 0022 01        		.uleb128 0x1
 2721 0023 50        		.byte	0x50
 2722 0024 00        		.byte	0
 2723               	.LVUS51:
 2724 0025 01        		.uleb128 .LVU364
 2725 0026 00        		.uleb128 .LVU365


 2726 0027 00        		.uleb128 .LVU371
 2727 0028 01        		.uleb128 .LVU377
 2728 0029 01        		.uleb128 .LVU377
 2729 002a 01        		.uleb128 .LVU383
 2730 002b 01        		.uleb128 .LVU383
 2731 002c 00        		.uleb128 0
 2732               	.LLST51:
 2733 002d 04        		.byte	0x4
 2734 002e C808      		.uleb128 .LVL71-.Ltext0
 2735 0030 D408      		.uleb128 .LVL72-.Ltext0
 2736 0032 02        		.uleb128 0x2
 2737 0033 30        		.byte	0x30
 2738 0034 9F        		.byte	0x9f
 2739 0035 04        		.byte	0x4
 2740 0036 E208      		.uleb128 .LVL73-.Ltext0
 2741 0038 EE08      		.uleb128 .LVL74-.Ltext0
 2742 003a 02        		.uleb128 0x2
 2743 003b 30        		.byte	0x30
 2744 003c 9F        		.byte	0x9f
 2745 003d 04        		.byte	0x4
 2746 003e EE08      		.uleb128 .LVL74-.Ltext0
 2747 0040 FA08      		.uleb128 .LVL75-.Ltext0
 2748 0042 02        		.uleb128 0x2
 2749 0043 31        		.byte	0x31
 2750 0044 9F        		.byte	0x9f
 2751 0045 04        		.byte	0x4
 2752 0046 FA08      		.uleb128 .LVL75-.Ltext0
 2753 0048 8409      		.uleb128 .LFE9-.Ltext0
 2754 004a 02        		.uleb128 0x2
 2755 004b 32        		.byte	0x32
 2756 004c 9F        		.byte	0x9f
 2757 004d 00        		.byte	0
 2758               	.LVUS41:
 2759 004e 03        		.uleb128 .LVU296
 2760 004f 00        		.uleb128 .LVU304
 2761 0050 00        		.uleb128 .LVU304
 2762 0051 00        		.uleb128 .LVU343
 2763 0052 00        		.uleb128 .LVU346
 2764 0053 00        		.uleb128 .LVU354
 2765               	.LLST41:
 2766 0054 04        		.byte	0x4
 2767 0055 F606      		.uleb128 .LVL55-.Ltext0
 2768 0057 9407      		.uleb128 .LVL58-.Ltext0
 2769 0059 02        		.uleb128 0x2
 2770 005a 30        		.byte	0x30
 2771 005b 9F        		.byte	0x9f
 2772 005c 04        		.byte	0x4
 2773 005d 9407      		.uleb128 .LVL58-.Ltext0
 2774 005f 8008      		.uleb128 .LVL66-.Ltext0
 2775 0061 01        		.uleb128 0x1
 2776 0062 51        		.byte	0x51
 2777 0063 04        		.byte	0x4
 2778 0064 8608      		.uleb128 .LVL68-.Ltext0
 2779 0066 B408      		.uleb128 .LVL70-.Ltext0
 2780 0068 01        		.uleb128 0x1
 2781 0069 51        		.byte	0x51
 2782 006a 00        		.byte	0


 2783               	.LVUS42:
 2784 006b 04        		.uleb128 .LVU297
 2785 006c 00        		.uleb128 .LVU299
 2786 006d 00        		.uleb128 .LVU299
 2787 006e 00        		.uleb128 0
 2788               	.LLST42:
 2789 006f 04        		.byte	0x4
 2790 0070 F606      		.uleb128 .LVL55-.Ltext0
 2791 0072 FE06      		.uleb128 .LVL56-.Ltext0
 2792 0074 02        		.uleb128 0x2
 2793 0075 31        		.byte	0x31
 2794 0076 9F        		.byte	0x9f
 2795 0077 04        		.byte	0x4
 2796 0078 FE06      		.uleb128 .LVL56-.Ltext0
 2797 007a B608      		.uleb128 .LFE8-.Ltext0
 2798 007c 01        		.uleb128 0x1
 2799 007d 51        		.byte	0x51
 2800 007e 00        		.byte	0
 2801               	.LVUS43:
 2802 007f 01        		.uleb128 .LVU312
 2803 0080 01        		.uleb128 .LVU331
 2804               	.LLST43:
 2805 0081 04        		.byte	0x4
 2806 0082 BC07      		.uleb128 .LVL59-.Ltext0
 2807 0084 DE07      		.uleb128 .LVL63-.Ltext0
 2808 0086 01        		.uleb128 0x1
 2809 0087 51        		.byte	0x51
 2810 0088 00        		.byte	0
 2811               	.LVUS44:
 2812 0089 00        		.uleb128 .LVU315
 2813 008a 03        		.uleb128 .LVU318
 2814 008b 03        		.uleb128 .LVU318
 2815 008c 01        		.uleb128 .LVU322
 2816 008d 01        		.uleb128 .LVU322
 2817 008e 01        		.uleb128 .LVU326
 2818 008f 01        		.uleb128 .LVU326
 2819 0090 02        		.uleb128 .LVU327
 2820 0091 02        		.uleb128 .LVU327
 2821 0092 01        		.uleb128 .LVU331
 2822               	.LLST44:
 2823 0093 04        		.byte	0x4
 2824 0094 CA07      		.uleb128 .LVL60-.Ltext0
 2825 0096 CA07      		.uleb128 .LVL60-.Ltext0
 2826 0098 01        		.uleb128 0x1
 2827 0099 5B        		.byte	0x5b
 2828 009a 04        		.byte	0x4
 2829 009b CA07      		.uleb128 .LVL60-.Ltext0
 2830 009d D007      		.uleb128 .LVL61-.Ltext0
 2831 009f 03        		.uleb128 0x3
 2832 00a0 7B        		.byte	0x7b
 2833 00a1 7C        		.sleb128 -4
 2834 00a2 9F        		.byte	0x9f
 2835 00a3 04        		.byte	0x4
 2836 00a4 D007      		.uleb128 .LVL61-.Ltext0
 2837 00a6 D407      		.uleb128 .LVL62-.Ltext0
 2838 00a8 03        		.uleb128 0x3
 2839 00a9 7B        		.byte	0x7b


 2840 00aa 7A        		.sleb128 -6
 2841 00ab 9F        		.byte	0x9f
 2842 00ac 04        		.byte	0x4
 2843 00ad D407      		.uleb128 .LVL62-.Ltext0
 2844 00af D407      		.uleb128 .LVL62-.Ltext0
 2845 00b1 04        		.uleb128 0x4
 2846 00b2 7B        		.byte	0x7b
 2847 00b3 BE7F      		.sleb128 -66
 2848 00b5 9F        		.byte	0x9f
 2849 00b6 04        		.byte	0x4
 2850 00b7 D407      		.uleb128 .LVL62-.Ltext0
 2851 00b9 DE07      		.uleb128 .LVL63-.Ltext0
 2852 00bb 04        		.uleb128 0x4
 2853 00bc 7B        		.byte	0x7b
 2854 00bd BA7F      		.sleb128 -70
 2855 00bf 9F        		.byte	0x9f
 2856 00c0 00        		.byte	0
 2857               	.LVUS45:
 2858 00c1 04        		.uleb128 .LVU319
 2859 00c2 03        		.uleb128 .LVU328
 2860 00c3 03        		.uleb128 .LVU328
 2861 00c4 00        		.uleb128 .LVU332
 2862 00c5 00        		.uleb128 .LVU332
 2863 00c6 00        		.uleb128 .LVU345
 2864 00c7 00        		.uleb128 .LVU345
 2865 00c8 00        		.uleb128 .LVU346
 2866 00c9 00        		.uleb128 .LVU346
 2867 00ca 00        		.uleb128 0
 2868               	.LLST45:
 2869 00cb 04        		.byte	0x4
 2870 00cc CA07      		.uleb128 .LVL60-.Ltext0
 2871 00ce D407      		.uleb128 .LVL62-.Ltext0
 2872 00d0 03        		.uleb128 0x3
 2873 00d1 7B        		.byte	0x7b
 2874 00d2 7C        		.sleb128 -4
 2875 00d3 9F        		.byte	0x9f
 2876 00d4 04        		.byte	0x4
 2877 00d5 D407      		.uleb128 .LVL62-.Ltext0
 2878 00d7 E207      		.uleb128 .LVL64-.Ltext0
 2879 00d9 04        		.uleb128 0x4
 2880 00da 7B        		.byte	0x7b
 2881 00db BA7F      		.sleb128 -70
 2882 00dd 9F        		.byte	0x9f
 2883 00de 04        		.byte	0x4
 2884 00df E207      		.uleb128 .LVL64-.Ltext0
 2885 00e1 8408      		.uleb128 .LVL67-.Ltext0
 2886 00e3 01        		.uleb128 0x1
 2887 00e4 5B        		.byte	0x5b
 2888 00e5 04        		.byte	0x4
 2889 00e6 8408      		.uleb128 .LVL67-.Ltext0
 2890 00e8 8608      		.uleb128 .LVL68-.Ltext0
 2891 00ea 12        		.uleb128 0x12
 2892 00eb 71        		.byte	0x71
 2893 00ec 00        		.sleb128 0
 2894 00ed 71        		.byte	0x71
 2895 00ee 00        		.sleb128 0
 2896 00ef 22        		.byte	0x22


 2897 00f0 31        		.byte	0x31
 2898 00f1 24        		.byte	0x24
 2899 00f2 71        		.byte	0x71
 2900 00f3 00        		.sleb128 0
 2901 00f4 22        		.byte	0x22
 2902 00f5 32        		.byte	0x32
 2903 00f6 24        		.byte	0x24
 2904 00f7 03        		.byte	0x3
 2905 00f8 0000 0000 		.long	task_tab+4
 2906 00fc 22        		.byte	0x22
 2907 00fd 04        		.byte	0x4
 2908 00fe 8608      		.uleb128 .LVL68-.Ltext0
 2909 0100 B608      		.uleb128 .LFE8-.Ltext0
 2910 0102 01        		.uleb128 0x1
 2911 0103 5B        		.byte	0x5b
 2912 0104 00        		.byte	0
 2913               	.LVUS46:
 2914 0105 02        		.uleb128 .LVU323
 2915 0106 00        		.uleb128 .LVU332
 2916 0107 00        		.uleb128 .LVU332
 2917 0108 00        		.uleb128 .LVU345
 2918 0109 00        		.uleb128 .LVU345
 2919 010a 00        		.uleb128 .LVU346
 2920 010b 00        		.uleb128 .LVU346
 2921 010c 00        		.uleb128 0
 2922               	.LLST46:
 2923 010d 04        		.byte	0x4
 2924 010e D007      		.uleb128 .LVL61-.Ltext0
 2925 0110 E207      		.uleb128 .LVL64-.Ltext0
 2926 0112 03        		.uleb128 0x3
 2927 0113 7B        		.byte	0x7b
 2928 0114 7A        		.sleb128 -6
 2929 0115 9F        		.byte	0x9f
 2930 0116 04        		.byte	0x4
 2931 0117 E207      		.uleb128 .LVL64-.Ltext0
 2932 0119 8408      		.uleb128 .LVL67-.Ltext0
 2933 011b 04        		.uleb128 0x4
 2934 011c 7B        		.byte	0x7b
 2935 011d C000      		.sleb128 64
 2936 011f 9F        		.byte	0x9f
 2937 0120 04        		.byte	0x4
 2938 0121 8408      		.uleb128 .LVL67-.Ltext0
 2939 0123 8608      		.uleb128 .LVL68-.Ltext0
 2940 0125 16        		.uleb128 0x16
 2941 0126 71        		.byte	0x71
 2942 0127 00        		.sleb128 0
 2943 0128 71        		.byte	0x71
 2944 0129 00        		.sleb128 0
 2945 012a 22        		.byte	0x22
 2946 012b 31        		.byte	0x31
 2947 012c 24        		.byte	0x24
 2948 012d 71        		.byte	0x71
 2949 012e 00        		.sleb128 0
 2950 012f 22        		.byte	0x22
 2951 0130 32        		.byte	0x32
 2952 0131 24        		.byte	0x24
 2953 0132 03        		.byte	0x3


 2954 0133 0000 0000 		.long	task_tab+4
 2955 0137 22        		.byte	0x22
 2956 0138 06        		.byte	0x6
 2957 0139 23        		.byte	0x23
 2958 013a 40        		.uleb128 0x40
 2959 013b 9F        		.byte	0x9f
 2960 013c 04        		.byte	0x4
 2961 013d 8608      		.uleb128 .LVL68-.Ltext0
 2962 013f B608      		.uleb128 .LFE8-.Ltext0
 2963 0141 04        		.uleb128 0x4
 2964 0142 7B        		.byte	0x7b
 2965 0143 C000      		.sleb128 64
 2966 0145 9F        		.byte	0x9f
 2967 0146 00        		.byte	0
 2968               	.LVUS48:
 2969 0147 01        		.uleb128 .LVU334
 2970 0148 00        		.uleb128 .LVU343
 2971 0149 00        		.uleb128 .LVU346
 2972 014a 00        		.uleb128 .LVU354
 2973               	.LLST48:
 2974 014b 04        		.byte	0x4
 2975 014c E607      		.uleb128 .LVL65-.Ltext0
 2976 014e 8008      		.uleb128 .LVL66-.Ltext0
 2977 0150 01        		.uleb128 0x1
 2978 0151 51        		.byte	0x51
 2979 0152 04        		.byte	0x4
 2980 0153 8608      		.uleb128 .LVL68-.Ltext0
 2981 0155 B408      		.uleb128 .LVL70-.Ltext0
 2982 0157 01        		.uleb128 0x1
 2983 0158 51        		.byte	0x51
 2984 0159 00        		.byte	0
 2985               	.LVUS49:
 2986 015a 01        		.uleb128 .LVU334
 2987 015b 00        		.uleb128 .LVU343
 2988 015c 00        		.uleb128 .LVU346
 2989 015d 00        		.uleb128 .LVU354
 2990               	.LLST49:
 2991 015e 04        		.byte	0x4
 2992 015f E607      		.uleb128 .LVL65-.Ltext0
 2993 0161 8008      		.uleb128 .LVL66-.Ltext0
 2994 0163 06        		.uleb128 0x6
 2995 0164 03        		.byte	0x3
 2996 0165 0000 0000 		.long	ready
 2997 0169 9F        		.byte	0x9f
 2998 016a 04        		.byte	0x4
 2999 016b 8608      		.uleb128 .LVL68-.Ltext0
 3000 016d B408      		.uleb128 .LVL70-.Ltext0
 3001 016f 06        		.uleb128 0x6
 3002 0170 03        		.byte	0x3
 3003 0171 0000 0000 		.long	ready
 3004 0175 9F        		.byte	0x9f
 3005 0176 00        		.byte	0
 3006               	.LVUS50:
 3007 0177 00        		.uleb128 .LVU346
 3008 0178 00        		.uleb128 .LVU348
 3009 0179 00        		.uleb128 .LVU348
 3010 017a 00        		.uleb128 .LVU354


 3011               	.LLST50:
 3012 017b 04        		.byte	0x4
 3013 017c 8608      		.uleb128 .LVL68-.Ltext0
 3014 017e 8A08      		.uleb128 .LVL69-.Ltext0
 3015 0180 01        		.uleb128 0x1
 3016 0181 50        		.byte	0x50
 3017 0182 04        		.byte	0x4
 3018 0183 8A08      		.uleb128 .LVL69-.Ltext0
 3019 0185 B408      		.uleb128 .LVL70-.Ltext0
 3020 0187 01        		.uleb128 0x1
 3021 0188 58        		.byte	0x58
 3022 0189 00        		.byte	0
 3023               	.LVUS30:
 3024 018a 01        		.uleb128 .LVU229
 3025 018b 00        		.uleb128 .LVU256
 3026 018c 00        		.uleb128 .LVU259
 3027 018d 00        		.uleb128 .LVU267
 3028               	.LLST30:
 3029 018e 04        		.byte	0x4
 3030 018f BC05      		.uleb128 .LVL41-.Ltext0
 3031 0191 FA05      		.uleb128 .LVL44-.Ltext0
 3032 0193 02        		.uleb128 0x2
 3033 0194 91        		.byte	0x91
 3034 0195 70        		.sleb128 -16
 3035 0196 04        		.byte	0x4
 3036 0197 8006      		.uleb128 .LVL46-.Ltext0
 3037 0199 AE06      		.uleb128 .LVL48-.Ltext0
 3038 019b 02        		.uleb128 0x2
 3039 019c 91        		.byte	0x91
 3040 019d 70        		.sleb128 -16
 3041 019e 00        		.byte	0
 3042               	.LVUS31:
 3043 019f 01        		.uleb128 .LVU244
 3044 01a0 00        		.uleb128 .LVU256
 3045 01a1 00        		.uleb128 .LVU259
 3046 01a2 00        		.uleb128 .LVU267
 3047               	.LLST31:
 3048 01a3 04        		.byte	0x4
 3049 01a4 E005      		.uleb128 .LVL43-.Ltext0
 3050 01a6 FA05      		.uleb128 .LVL44-.Ltext0
 3051 01a8 01        		.uleb128 0x1
 3052 01a9 52        		.byte	0x52
 3053 01aa 04        		.byte	0x4
 3054 01ab 8006      		.uleb128 .LVL46-.Ltext0
 3055 01ad AE06      		.uleb128 .LVL48-.Ltext0
 3056 01af 01        		.uleb128 0x1
 3057 01b0 52        		.byte	0x52
 3058 01b1 00        		.byte	0
 3059               	.LVUS32:
 3060 01b2 04        		.uleb128 .LVU232
 3061 01b3 01        		.uleb128 .LVU244
 3062               	.LLST32:
 3063 01b4 04        		.byte	0x4
 3064 01b5 BC05      		.uleb128 .LVL41-.Ltext0
 3065 01b7 E005      		.uleb128 .LVL43-.Ltext0
 3066 01b9 0C        		.uleb128 0xc
 3067 01ba 91        		.byte	0x91


 3068 01bb 70        		.sleb128 -16
 3069 01bc 06        		.byte	0x6
 3070 01bd 3C        		.byte	0x3c
 3071 01be 1E        		.byte	0x1e
 3072 01bf 03        		.byte	0x3
 3073 01c0 0000 0000 		.long	semaphore+8
 3074 01c4 22        		.byte	0x22
 3075 01c5 9F        		.byte	0x9f
 3076 01c6 00        		.byte	0
 3077               	.LVUS33:
 3078 01c7 01        		.uleb128 .LVU238
 3079 01c8 00        		.uleb128 .LVU258
 3080 01c9 00        		.uleb128 .LVU259
 3081 01ca 00        		.uleb128 0
 3082               	.LLST33:
 3083 01cb 04        		.byte	0x4
 3084 01cc C405      		.uleb128 .LVL42-.Ltext0
 3085 01ce FE05      		.uleb128 .LVL45-.Ltext0
 3086 01d0 01        		.uleb128 0x1
 3087 01d1 52        		.byte	0x52
 3088 01d2 04        		.byte	0x4
 3089 01d3 8006      		.uleb128 .LVL46-.Ltext0
 3090 01d5 B006      		.uleb128 .LFE6-.Ltext0
 3091 01d7 01        		.uleb128 0x1
 3092 01d8 52        		.byte	0x52
 3093 01d9 00        		.byte	0
 3094               	.LVUS35:
 3095 01da 04        		.uleb128 .LVU247
 3096 01db 00        		.uleb128 .LVU256
 3097 01dc 00        		.uleb128 .LVU259
 3098 01dd 00        		.uleb128 .LVU267
 3099               	.LLST35:
 3100 01de 04        		.byte	0x4
 3101 01df E005      		.uleb128 .LVL43-.Ltext0
 3102 01e1 FA05      		.uleb128 .LVL44-.Ltext0
 3103 01e3 01        		.uleb128 0x1
 3104 01e4 52        		.byte	0x52
 3105 01e5 04        		.byte	0x4
 3106 01e6 8006      		.uleb128 .LVL46-.Ltext0
 3107 01e8 AE06      		.uleb128 .LVL48-.Ltext0
 3108 01ea 01        		.uleb128 0x1
 3109 01eb 52        		.byte	0x52
 3110 01ec 00        		.byte	0
 3111               	.LVUS36:
 3112 01ed 04        		.uleb128 .LVU247
 3113 01ee 00        		.uleb128 .LVU256
 3114 01ef 00        		.uleb128 .LVU259
 3115 01f0 00        		.uleb128 .LVU267
 3116               	.LLST36:
 3117 01f1 04        		.byte	0x4
 3118 01f2 E005      		.uleb128 .LVL43-.Ltext0
 3119 01f4 FA05      		.uleb128 .LVL44-.Ltext0
 3120 01f6 06        		.uleb128 0x6
 3121 01f7 03        		.byte	0x3
 3122 01f8 0000 0000 		.long	ready
 3123 01fc 9F        		.byte	0x9f
 3124 01fd 04        		.byte	0x4


 3125 01fe 8006      		.uleb128 .LVL46-.Ltext0
 3126 0200 AE06      		.uleb128 .LVL48-.Ltext0
 3127 0202 06        		.uleb128 0x6
 3128 0203 03        		.byte	0x3
 3129 0204 0000 0000 		.long	ready
 3130 0208 9F        		.byte	0x9f
 3131 0209 00        		.byte	0
 3132               	.LVUS37:
 3133 020a 00        		.uleb128 .LVU259
 3134 020b 00        		.uleb128 .LVU261
 3135 020c 00        		.uleb128 .LVU261
 3136 020d 00        		.uleb128 .LVU267
 3137               	.LLST37:
 3138 020e 04        		.byte	0x4
 3139 020f 8006      		.uleb128 .LVL46-.Ltext0
 3140 0211 8406      		.uleb128 .LVL47-.Ltext0
 3141 0213 01        		.uleb128 0x1
 3142 0214 50        		.byte	0x50
 3143 0215 04        		.byte	0x4
 3144 0216 8406      		.uleb128 .LVL47-.Ltext0
 3145 0218 AE06      		.uleb128 .LVL48-.Ltext0
 3146 021a 01        		.uleb128 0x1
 3147 021b 51        		.byte	0x51
 3148 021c 00        		.byte	0
 3149               	.LVUS20:
 3150 021d 01        		.uleb128 .LVU162
 3151 021e 00        		.uleb128 0
 3152               	.LLST20:
 3153 021f 04        		.byte	0x4
 3154 0220 FE03      		.uleb128 .LVL30-.Ltext0
 3155 0222 9205      		.uleb128 .LFE5-.Ltext0
 3156 0224 02        		.uleb128 0x2
 3157 0225 91        		.byte	0x91
 3158 0226 70        		.sleb128 -16
 3159 0227 00        		.byte	0
 3160               	.LVUS22:
 3161 0228 00        		.uleb128 .LVU164
 3162 0229 00        		.uleb128 .LVU173
 3163 022a 00        		.uleb128 .LVU196
 3164 022b 00        		.uleb128 .LVU205
 3165               	.LLST22:
 3166 022c 04        		.byte	0x4
 3167 022d 8404      		.uleb128 .LVL31-.Ltext0
 3168 022f A404      		.uleb128 .LVL32-.Ltext0
 3169 0231 01        		.uleb128 0x1
 3170 0232 59        		.byte	0x59
 3171 0233 04        		.byte	0x4
 3172 0234 D004      		.uleb128 .LVL35-.Ltext0
 3173 0236 8805      		.uleb128 .LVL38-.Ltext0
 3174 0238 01        		.uleb128 0x1
 3175 0239 59        		.byte	0x59
 3176 023a 00        		.byte	0
 3177               	.LVUS23:
 3178 023b 00        		.uleb128 .LVU164
 3179 023c 00        		.uleb128 .LVU173
 3180 023d 00        		.uleb128 .LVU196
 3181 023e 00        		.uleb128 .LVU205


 3182               	.LLST23:
 3183 023f 04        		.byte	0x4
 3184 0240 8404      		.uleb128 .LVL31-.Ltext0
 3185 0242 A404      		.uleb128 .LVL32-.Ltext0
 3186 0244 0C        		.uleb128 0xc
 3187 0245 91        		.byte	0x91
 3188 0246 70        		.sleb128 -16
 3189 0247 06        		.byte	0x6
 3190 0248 3C        		.byte	0x3c
 3191 0249 1E        		.byte	0x1e
 3192 024a 03        		.byte	0x3
 3193 024b 0000 0000 		.long	semaphore+8
 3194 024f 22        		.byte	0x22
 3195 0250 9F        		.byte	0x9f
 3196 0251 04        		.byte	0x4
 3197 0252 D004      		.uleb128 .LVL35-.Ltext0
 3198 0254 8805      		.uleb128 .LVL38-.Ltext0
 3199 0256 0C        		.uleb128 0xc
 3200 0257 91        		.byte	0x91
 3201 0258 70        		.sleb128 -16
 3202 0259 06        		.byte	0x6
 3203 025a 3C        		.byte	0x3c
 3204 025b 1E        		.byte	0x1e
 3205 025c 03        		.byte	0x3
 3206 025d 0000 0000 		.long	semaphore+8
 3207 0261 22        		.byte	0x22
 3208 0262 9F        		.byte	0x9f
 3209 0263 00        		.byte	0
 3210               	.LVUS24:
 3211 0264 00        		.uleb128 .LVU197
 3212 0265 00        		.uleb128 .LVU199
 3213 0266 00        		.uleb128 .LVU199
 3214 0267 00        		.uleb128 .LVU205
 3215               	.LLST24:
 3216 0268 04        		.byte	0x4
 3217 0269 D604      		.uleb128 .LVL36-.Ltext0
 3218 026b DA04      		.uleb128 .LVL37-.Ltext0
 3219 026d 01        		.uleb128 0x1
 3220 026e 50        		.byte	0x50
 3221 026f 04        		.byte	0x4
 3222 0270 DA04      		.uleb128 .LVL37-.Ltext0
 3223 0272 8805      		.uleb128 .LVL38-.Ltext0
 3224 0274 01        		.uleb128 0x1
 3225 0275 51        		.byte	0x51
 3226 0276 00        		.byte	0
 3227               	.LVUS27:
 3228 0277 04        		.uleb128 .LVU177
 3229 0278 01        		.uleb128 .LVU189
 3230 0279 04        		.uleb128 .LVU209
 3231 027a 00        		.uleb128 .LVU214
 3232               	.LLST27:
 3233 027b 04        		.byte	0x4
 3234 027c A404      		.uleb128 .LVL32-.Ltext0
 3235 027e C404      		.uleb128 .LVL34-.Ltext0
 3236 0280 06        		.uleb128 0x6
 3237 0281 03        		.byte	0x3
 3238 0282 0000 0000 		.long	ready


 3239 0286 9F        		.byte	0x9f
 3240 0287 04        		.byte	0x4
 3241 0288 8805      		.uleb128 .LVL38-.Ltext0
 3242 028a 9005      		.uleb128 .LVL39-.Ltext0
 3243 028c 06        		.uleb128 0x6
 3244 028d 03        		.byte	0x3
 3245 028e 0000 0000 		.long	ready
 3246 0292 9F        		.byte	0x9f
 3247 0293 00        		.byte	0
 3248               	.LVUS28:
 3249 0294 01        		.uleb128 .LVU183
 3250 0295 00        		.uleb128 .LVU196
 3251               	.LLST28:
 3252 0296 04        		.byte	0x4
 3253 0297 AC04      		.uleb128 .LVL33-.Ltext0
 3254 0299 CF04      		.uleb128 .LVL35-1-.Ltext0
 3255 029b 01        		.uleb128 0x1
 3256 029c 51        		.byte	0x51
 3257 029d 00        		.byte	0
 3258               	.LVUS0:
 3259 029e 00        		.uleb128 .LVU6
 3260 029f 00        		.uleb128 .LVU8
 3261 02a0 00        		.uleb128 .LVU8
 3262 02a1 00        		.uleb128 .LVU15
 3263               	.LLST0:
 3264 02a2 04        		.byte	0x4
 3265 02a3 12        		.uleb128 .LVL1-.Ltext0
 3266 02a4 16        		.uleb128 .LVL2-.Ltext0
 3267 02a5 01        		.uleb128 0x1
 3268 02a6 50        		.byte	0x50
 3269 02a7 04        		.byte	0x4
 3270 02a8 16        		.uleb128 .LVL2-.Ltext0
 3271 02a9 46        		.uleb128 .LVL3-.Ltext0
 3272 02aa 01        		.uleb128 0x1
 3273 02ab 51        		.byte	0x51
 3274 02ac 00        		.byte	0
 3275               	.LVUS1:
 3276 02ad 01        		.uleb128 .LVU27
 3277 02ae 01        		.uleb128 .LVU33
 3278               	.LLST1:
 3279 02af 04        		.byte	0x4
 3280 02b0 68        		.uleb128 .LVL5-.Ltext0
 3281 02b1 7E        		.uleb128 .LVL6-.Ltext0
 3282 02b2 01        		.uleb128 0x1
 3283 02b3 50        		.byte	0x50
 3284 02b4 00        		.byte	0
 3285               	.LVUS2:
 3286 02b5 02        		.uleb128 .LVU36
 3287 02b6 01        		.uleb128 .LVU48
 3288 02b7 00        		.uleb128 .LVU52
 3289 02b8 00        		.uleb128 0
 3290               	.LLST2:
 3291 02b9 04        		.byte	0x4
 3292 02ba 8001      		.uleb128 .LVL7-.Ltext0
 3293 02bc A201      		.uleb128 .LVL9-.Ltext0
 3294 02be 06        		.uleb128 0x6
 3295 02bf 03        		.byte	0x3


 3296 02c0 0000 0000 		.long	ready
 3297 02c4 9F        		.byte	0x9f
 3298 02c5 04        		.byte	0x4
 3299 02c6 AA01      		.uleb128 .LVL10-.Ltext0
 3300 02c8 AC01      		.uleb128 .LFE2-.Ltext0
 3301 02ca 06        		.uleb128 0x6
 3302 02cb 03        		.byte	0x3
 3303 02cc 0000 0000 		.long	ready
 3304 02d0 9F        		.byte	0x9f
 3305 02d1 00        		.byte	0
 3306               	.LVUS3:
 3307 02d2 01        		.uleb128 .LVU42
 3308 02d3 00        		.uleb128 .LVU52
 3309               	.LLST3:
 3310 02d4 04        		.byte	0x4
 3311 02d5 8801      		.uleb128 .LVL8-.Ltext0
 3312 02d7 AA01      		.uleb128 .LVL10-.Ltext0
 3313 02d9 01        		.uleb128 0x1
 3314 02da 50        		.byte	0x50
 3315 02db 00        		.byte	0
 3316               	.LVUS5:
 3317 02dc 00        		.uleb128 .LVU59
 3318 02dd 00        		.uleb128 .LVU72
 3319 02de 00        		.uleb128 .LVU95
 3320 02df 00        		.uleb128 .LVU99
 3321               	.LLST5:
 3322 02e0 04        		.byte	0x4
 3323 02e1 B601      		.uleb128 .LVL12-.Ltext0
 3324 02e3 8402      		.uleb128 .LVL15-.Ltext0
 3325 02e5 01        		.uleb128 0x1
 3326 02e6 59        		.byte	0x59
 3327 02e7 04        		.byte	0x4
 3328 02e8 B002      		.uleb128 .LVL18-.Ltext0
 3329 02ea C802      		.uleb128 .LVL19-.Ltext0
 3330 02ec 01        		.uleb128 0x1
 3331 02ed 59        		.byte	0x59
 3332 02ee 00        		.byte	0
 3333               	.LVUS6:
 3334 02ef 00        		.uleb128 .LVU59
 3335 02f0 00        		.uleb128 .LVU64
 3336 02f1 00        		.uleb128 .LVU64
 3337 02f2 00        		.uleb128 .LVU72
 3338 02f3 00        		.uleb128 .LVU95
 3339 02f4 00        		.uleb128 .LVU99
 3340               	.LLST6:
 3341 02f5 04        		.byte	0x4
 3342 02f6 B601      		.uleb128 .LVL12-.Ltext0
 3343 02f8 D201      		.uleb128 .LVL13-.Ltext0
 3344 02fa 0B        		.uleb128 0xb
 3345 02fb 71        		.byte	0x71
 3346 02fc 00        		.sleb128 0
 3347 02fd 3C        		.byte	0x3c
 3348 02fe 1E        		.byte	0x1e
 3349 02ff 03        		.byte	0x3
 3350 0300 0000 0000 		.long	semaphore+8
 3351 0304 22        		.byte	0x22
 3352 0305 9F        		.byte	0x9f


 3353 0306 04        		.byte	0x4
 3354 0307 D201      		.uleb128 .LVL13-.Ltext0
 3355 0309 8402      		.uleb128 .LVL15-.Ltext0
 3356 030b 0C        		.uleb128 0xc
 3357 030c 91        		.byte	0x91
 3358 030d 70        		.sleb128 -16
 3359 030e 06        		.byte	0x6
 3360 030f 3C        		.byte	0x3c
 3361 0310 1E        		.byte	0x1e
 3362 0311 03        		.byte	0x3
 3363 0312 0000 0000 		.long	semaphore+8
 3364 0316 22        		.byte	0x22
 3365 0317 9F        		.byte	0x9f
 3366 0318 04        		.byte	0x4
 3367 0319 B002      		.uleb128 .LVL18-.Ltext0
 3368 031b C802      		.uleb128 .LVL19-.Ltext0
 3369 031d 0B        		.uleb128 0xb
 3370 031e 71        		.byte	0x71
 3371 031f 00        		.sleb128 0
 3372 0320 3C        		.byte	0x3c
 3373 0321 1E        		.byte	0x1e
 3374 0322 03        		.byte	0x3
 3375 0323 0000 0000 		.long	semaphore+8
 3376 0327 22        		.byte	0x22
 3377 0328 9F        		.byte	0x9f
 3378 0329 00        		.byte	0
 3379               	.LVUS7:
 3380 032a 00        		.uleb128 .LVU64
 3381 032b 00        		.uleb128 .LVU66
 3382 032c 00        		.uleb128 .LVU66
 3383 032d 00        		.uleb128 .LVU72
 3384               	.LLST7:
 3385 032e 04        		.byte	0x4
 3386 032f D201      		.uleb128 .LVL13-.Ltext0
 3387 0331 D601      		.uleb128 .LVL14-.Ltext0
 3388 0333 01        		.uleb128 0x1
 3389 0334 50        		.byte	0x50
 3390 0335 04        		.byte	0x4
 3391 0336 D601      		.uleb128 .LVL14-.Ltext0
 3392 0338 8402      		.uleb128 .LVL15-.Ltext0
 3393 033a 01        		.uleb128 0x1
 3394 033b 51        		.byte	0x51
 3395 033c 00        		.byte	0
 3396               	.LVUS10:
 3397 033d 04        		.uleb128 .LVU76
 3398 033e 01        		.uleb128 .LVU88
 3399 033f 04        		.uleb128 .LVU103
 3400 0340 00        		.uleb128 .LVU108
 3401               	.LLST10:
 3402 0341 04        		.byte	0x4
 3403 0342 8402      		.uleb128 .LVL15-.Ltext0
 3404 0344 A402      		.uleb128 .LVL17-.Ltext0
 3405 0346 06        		.uleb128 0x6
 3406 0347 03        		.byte	0x3
 3407 0348 0000 0000 		.long	ready
 3408 034c 9F        		.byte	0x9f
 3409 034d 04        		.byte	0x4


 3410 034e C802      		.uleb128 .LVL19-.Ltext0
 3411 0350 D002      		.uleb128 .LVL20-.Ltext0
 3412 0352 06        		.uleb128 0x6
 3413 0353 03        		.byte	0x3
 3414 0354 0000 0000 		.long	ready
 3415 0358 9F        		.byte	0x9f
 3416 0359 00        		.byte	0
 3417               	.LVUS11:
 3418 035a 01        		.uleb128 .LVU82
 3419 035b 00        		.uleb128 .LVU95
 3420               	.LLST11:
 3421 035c 04        		.byte	0x4
 3422 035d 8C02      		.uleb128 .LVL16-.Ltext0
 3423 035f AF02      		.uleb128 .LVL18-1-.Ltext0
 3424 0361 01        		.uleb128 0x1
 3425 0362 51        		.byte	0x51
 3426 0363 00        		.byte	0
 3427               	.LVUS12:
 3428 0364 01        		.uleb128 .LVU130
 3429 0365 00        		.uleb128 .LVU142
 3430 0366 00        		.uleb128 .LVU144
 3431 0367 00        		.uleb128 .LVU152
 3432               	.LLST12:
 3433 0368 04        		.byte	0x4
 3434 0369 8C03      		.uleb128 .LVL24-.Ltext0
 3435 036b A603      		.uleb128 .LVL25-.Ltext0
 3436 036d 01        		.uleb128 0x1
 3437 036e 52        		.byte	0x52
 3438 036f 04        		.byte	0x4
 3439 0370 AC03      		.uleb128 .LVL26-.Ltext0
 3440 0372 DA03      		.uleb128 .LVL28-.Ltext0
 3441 0374 01        		.uleb128 0x1
 3442 0375 52        		.byte	0x52
 3443 0376 00        		.byte	0
 3444               	.LVUS13:
 3445 0377 02        		.uleb128 .LVU118
 3446 0378 01        		.uleb128 .LVU130
 3447               	.LLST13:
 3448 0379 04        		.byte	0x4
 3449 037a DA02      		.uleb128 .LVL22-.Ltext0
 3450 037c 8C03      		.uleb128 .LVL24-.Ltext0
 3451 037e 0B        		.uleb128 0xb
 3452 037f 71        		.byte	0x71
 3453 0380 00        		.sleb128 0
 3454 0381 3C        		.byte	0x3c
 3455 0382 1E        		.byte	0x1e
 3456 0383 03        		.byte	0x3
 3457 0384 0000 0000 		.long	semaphore+8
 3458 0388 22        		.byte	0x22
 3459 0389 9F        		.byte	0x9f
 3460 038a 00        		.byte	0
 3461               	.LVUS14:
 3462 038b 01        		.uleb128 .LVU124
 3463 038c 00        		.uleb128 .LVU142
 3464 038d 00        		.uleb128 .LVU144
 3465 038e 00        		.uleb128 0
 3466               	.LLST14:


 3467 038f 04        		.byte	0x4
 3468 0390 F002      		.uleb128 .LVL23-.Ltext0
 3469 0392 A603      		.uleb128 .LVL25-.Ltext0
 3470 0394 01        		.uleb128 0x1
 3471 0395 52        		.byte	0x52
 3472 0396 04        		.byte	0x4
 3473 0397 AC03      		.uleb128 .LVL26-.Ltext0
 3474 0399 DC03      		.uleb128 .LFE4-.Ltext0
 3475 039b 01        		.uleb128 0x1
 3476 039c 52        		.byte	0x52
 3477 039d 00        		.byte	0
 3478               	.LVUS16:
 3479 039e 04        		.uleb128 .LVU133
 3480 039f 00        		.uleb128 .LVU142
 3481 03a0 00        		.uleb128 .LVU144
 3482 03a1 00        		.uleb128 .LVU152
 3483               	.LLST16:
 3484 03a2 04        		.byte	0x4
 3485 03a3 8C03      		.uleb128 .LVL24-.Ltext0
 3486 03a5 A603      		.uleb128 .LVL25-.Ltext0
 3487 03a7 01        		.uleb128 0x1
 3488 03a8 52        		.byte	0x52
 3489 03a9 04        		.byte	0x4
 3490 03aa AC03      		.uleb128 .LVL26-.Ltext0
 3491 03ac DA03      		.uleb128 .LVL28-.Ltext0
 3492 03ae 01        		.uleb128 0x1
 3493 03af 52        		.byte	0x52
 3494 03b0 00        		.byte	0
 3495               	.LVUS17:
 3496 03b1 04        		.uleb128 .LVU133
 3497 03b2 00        		.uleb128 .LVU142
 3498 03b3 00        		.uleb128 .LVU144
 3499 03b4 00        		.uleb128 .LVU152
 3500               	.LLST17:
 3501 03b5 04        		.byte	0x4
 3502 03b6 8C03      		.uleb128 .LVL24-.Ltext0
 3503 03b8 A603      		.uleb128 .LVL25-.Ltext0
 3504 03ba 06        		.uleb128 0x6
 3505 03bb 03        		.byte	0x3
 3506 03bc 0000 0000 		.long	ready
 3507 03c0 9F        		.byte	0x9f
 3508 03c1 04        		.byte	0x4
 3509 03c2 AC03      		.uleb128 .LVL26-.Ltext0
 3510 03c4 DA03      		.uleb128 .LVL28-.Ltext0
 3511 03c6 06        		.uleb128 0x6
 3512 03c7 03        		.byte	0x3
 3513 03c8 0000 0000 		.long	ready
 3514 03cc 9F        		.byte	0x9f
 3515 03cd 00        		.byte	0
 3516               	.LVUS18:
 3517 03ce 00        		.uleb128 .LVU144
 3518 03cf 00        		.uleb128 .LVU146
 3519 03d0 00        		.uleb128 .LVU146
 3520 03d1 00        		.uleb128 .LVU152
 3521               	.LLST18:
 3522 03d2 04        		.byte	0x4
 3523 03d3 AC03      		.uleb128 .LVL26-.Ltext0


 3524 03d5 B003      		.uleb128 .LVL27-.Ltext0
 3525 03d7 01        		.uleb128 0x1
 3526 03d8 50        		.byte	0x50
 3527 03d9 04        		.byte	0x4
 3528 03da B003      		.uleb128 .LVL27-.Ltext0
 3529 03dc DA03      		.uleb128 .LVL28-.Ltext0
 3530 03de 01        		.uleb128 0x1
 3531 03df 51        		.byte	0x51
 3532 03e0 00        		.byte	0
 3533               	.LVUS38:
 3534 03e1 00        		.uleb128 .LVU272
 3535 03e2 03        		.uleb128 .LVU275
 3536 03e3 03        		.uleb128 .LVU275
 3537 03e4 01        		.uleb128 .LVU280
 3538 03e5 01        		.uleb128 .LVU280
 3539 03e6 01        		.uleb128 .LVU284
 3540 03e7 01        		.uleb128 .LVU284
 3541 03e8 02        		.uleb128 .LVU285
 3542 03e9 02        		.uleb128 .LVU285
 3543 03ea 00        		.uleb128 .LVU290
 3544 03eb 00        		.uleb128 .LVU290
 3545 03ec 00        		.uleb128 0
 3546               	.LLST38:
 3547 03ed 04        		.byte	0x4
 3548 03ee C406      		.uleb128 .LVL50-.Ltext0
 3549 03f0 C406      		.uleb128 .LVL50-.Ltext0
 3550 03f2 01        		.uleb128 0x1
 3551 03f3 58        		.byte	0x58
 3552 03f4 04        		.byte	0x4
 3553 03f5 C406      		.uleb128 .LVL50-.Ltext0
 3554 03f7 DC06      		.uleb128 .LVL51-.Ltext0
 3555 03f9 03        		.uleb128 0x3
 3556 03fa 78        		.byte	0x78
 3557 03fb 7C        		.sleb128 -4
 3558 03fc 9F        		.byte	0x9f
 3559 03fd 04        		.byte	0x4
 3560 03fe DC06      		.uleb128 .LVL51-.Ltext0
 3561 0400 E006      		.uleb128 .LVL52-.Ltext0
 3562 0402 03        		.uleb128 0x3
 3563 0403 78        		.byte	0x78
 3564 0404 7A        		.sleb128 -6
 3565 0405 9F        		.byte	0x9f
 3566 0406 04        		.byte	0x4
 3567 0407 E006      		.uleb128 .LVL52-.Ltext0
 3568 0409 E006      		.uleb128 .LVL52-.Ltext0
 3569 040b 04        		.uleb128 0x4
 3570 040c 78        		.byte	0x78
 3571 040d BE7F      		.sleb128 -66
 3572 040f 9F        		.byte	0x9f
 3573 0410 04        		.byte	0x4
 3574 0411 E006      		.uleb128 .LVL52-.Ltext0
 3575 0413 EE06      		.uleb128 .LVL53-.Ltext0
 3576 0415 04        		.uleb128 0x4
 3577 0416 78        		.byte	0x78
 3578 0417 BA7F      		.sleb128 -70
 3579 0419 9F        		.byte	0x9f
 3580 041a 04        		.byte	0x4


 3581 041b EE06      		.uleb128 .LVL53-.Ltext0
 3582 041d F206      		.uleb128 .LFE7-.Ltext0
 3583 041f 01        		.uleb128 0x1
 3584 0420 50        		.byte	0x50
 3585 0421 00        		.byte	0
 3586               	.LVUS39:
 3587 0422 04        		.uleb128 .LVU276
 3588 0423 03        		.uleb128 .LVU286
 3589 0424 03        		.uleb128 .LVU286
 3590 0425 00        		.uleb128 .LVU290
 3591 0426 00        		.uleb128 .LVU290
 3592 0427 00        		.uleb128 0
 3593               	.LLST39:
 3594 0428 04        		.byte	0x4
 3595 0429 C406      		.uleb128 .LVL50-.Ltext0
 3596 042b E006      		.uleb128 .LVL52-.Ltext0
 3597 042d 03        		.uleb128 0x3
 3598 042e 78        		.byte	0x78
 3599 042f 7C        		.sleb128 -4
 3600 0430 9F        		.byte	0x9f
 3601 0431 04        		.byte	0x4
 3602 0432 E006      		.uleb128 .LVL52-.Ltext0
 3603 0434 EE06      		.uleb128 .LVL53-.Ltext0
 3604 0436 04        		.uleb128 0x4
 3605 0437 78        		.byte	0x78
 3606 0438 BA7F      		.sleb128 -70
 3607 043a 9F        		.byte	0x9f
 3608 043b 04        		.byte	0x4
 3609 043c EE06      		.uleb128 .LVL53-.Ltext0
 3610 043e F206      		.uleb128 .LFE7-.Ltext0
 3611 0440 01        		.uleb128 0x1
 3612 0441 50        		.byte	0x50
 3613 0442 00        		.byte	0
 3614               	.LVUS40:
 3615 0443 02        		.uleb128 .LVU281
 3616 0444 00        		.uleb128 0
 3617               	.LLST40:
 3618 0445 04        		.byte	0x4
 3619 0446 DC06      		.uleb128 .LVL51-.Ltext0
 3620 0448 F206      		.uleb128 .LFE7-.Ltext0
 3621 044a 03        		.uleb128 0x3
 3622 044b 78        		.byte	0x78
 3623 044c 7A        		.sleb128 -6
 3624 044d 9F        		.byte	0x9f
 3625 044e 00        		.byte	0
 3626               	.Ldebug_loc3:
 3627               		.section	.debug_aranges,"",@progbits
 3628 0000 0000 001C 		.long	0x1c
 3629 0004 0002      		.word	0x2
 3630 0006 0000 0000 		.long	.Ldebug_info0
 3631 000a 04        		.byte	0x4
 3632 000b 00        		.byte	0
 3633 000c 0000      		.word	0
 3634 000e 0000      		.word	0
 3635 0010 0000 0000 		.long	.Ltext0
 3636 0014 0000 04B8 		.long	.Letext0-.Ltext0
 3637 0018 0000 0000 		.long	0


 3638 001c 0000 0000 		.long	0
 3639               		.section	.debug_rnglists,"",@progbits
 3640               	.Ldebug_ranges0:
 3641 0000 0000 0081 		.long	.Ldebug_ranges3-.Ldebug_ranges2
 3642               	.Ldebug_ranges2:
 3643 0004 0005      		.word	0x5
 3644 0006 04        		.byte	0x4
 3645 0007 00        		.byte	0
 3646 0008 0000 0000 		.long	0
 3647               	.LLRL4:
 3648 000c 04        		.byte	0x4
 3649 000d B601      		.uleb128 .LBB20-.Ltext0
 3650 000f 8402      		.uleb128 .LBE20-.Ltext0
 3651 0011 04        		.byte	0x4
 3652 0012 B002      		.uleb128 .LBB30-.Ltext0
 3653 0014 C802      		.uleb128 .LBE30-.Ltext0
 3654 0016 00        		.byte	0
 3655               	.LLRL8:
 3656 0017 04        		.byte	0x4
 3657 0018 8402      		.uleb128 .LBB23-.Ltext0
 3658 001a AA02      		.uleb128 .LBE23-.Ltext0
 3659 001c 04        		.byte	0x4
 3660 001d C802      		.uleb128 .LBB31-.Ltext0
 3661 001f D202      		.uleb128 .LBE31-.Ltext0
 3662 0021 00        		.byte	0
 3663               	.LLRL9:
 3664 0022 04        		.byte	0x4
 3665 0023 8402      		.uleb128 .LBB25-.Ltext0
 3666 0025 A402      		.uleb128 .LBE25-.Ltext0
 3667 0027 04        		.byte	0x4
 3668 0028 C802      		.uleb128 .LBB28-.Ltext0
 3669 002a D002      		.uleb128 .LBE28-.Ltext0
 3670 002c 00        		.byte	0
 3671               	.LLRL15:
 3672 002d 04        		.byte	0x4
 3673 002e 8C03      		.uleb128 .LBB40-.Ltext0
 3674 0030 A603      		.uleb128 .LBE40-.Ltext0
 3675 0032 04        		.byte	0x4
 3676 0033 AC03      		.uleb128 .LBB43-.Ltext0
 3677 0035 DC03      		.uleb128 .LBE43-.Ltext0
 3678 0037 00        		.byte	0
 3679               	.LLRL19:
 3680 0038 04        		.byte	0x4
 3681 0039 FE03      		.uleb128 .LBB52-.Ltext0
 3682 003b CA04      		.uleb128 .LBE52-.Ltext0
 3683 003d 04        		.byte	0x4
 3684 003e CA04      		.uleb128 .LBB67-.Ltext0
 3685 0040 9205      		.uleb128 .LBE67-.Ltext0
 3686 0042 00        		.byte	0
 3687               	.LLRL21:
 3688 0043 04        		.byte	0x4
 3689 0044 8404      		.uleb128 .LBB54-.Ltext0
 3690 0046 A404      		.uleb128 .LBE54-.Ltext0
 3691 0048 04        		.byte	0x4
 3692 0049 D604      		.uleb128 .LBB64-.Ltext0
 3693 004b 8805      		.uleb128 .LBE64-.Ltext0
 3694 004d 00        		.byte	0


 3695               	.LLRL25:
 3696 004e 04        		.byte	0x4
 3697 004f A404      		.uleb128 .LBB57-.Ltext0
 3698 0051 CA04      		.uleb128 .LBE57-.Ltext0
 3699 0053 04        		.byte	0x4
 3700 0054 8805      		.uleb128 .LBB65-.Ltext0
 3701 0056 9205      		.uleb128 .LBE65-.Ltext0
 3702 0058 00        		.byte	0
 3703               	.LLRL26:
 3704 0059 04        		.byte	0x4
 3705 005a A404      		.uleb128 .LBB59-.Ltext0
 3706 005c C404      		.uleb128 .LBE59-.Ltext0
 3707 005e 04        		.byte	0x4
 3708 005f 8805      		.uleb128 .LBB62-.Ltext0
 3709 0061 9005      		.uleb128 .LBE62-.Ltext0
 3710 0063 00        		.byte	0
 3711               	.LLRL29:
 3712 0064 04        		.byte	0x4
 3713 0065 BC05      		.uleb128 .LBB74-.Ltext0
 3714 0067 FA05      		.uleb128 .LBE74-.Ltext0
 3715 0069 04        		.byte	0x4
 3716 006a 8006      		.uleb128 .LBB83-.Ltext0
 3717 006c B006      		.uleb128 .LBE83-.Ltext0
 3718 006e 00        		.byte	0
 3719               	.LLRL34:
 3720 006f 04        		.byte	0x4
 3721 0070 E005      		.uleb128 .LBB78-.Ltext0
 3722 0072 FA05      		.uleb128 .LBE78-.Ltext0
 3723 0074 04        		.byte	0x4
 3724 0075 8006      		.uleb128 .LBB81-.Ltext0
 3725 0077 B006      		.uleb128 .LBE81-.Ltext0
 3726 0079 00        		.byte	0
 3727               	.LLRL47:
 3728 007a 04        		.byte	0x4
 3729 007b E607      		.uleb128 .LBB90-.Ltext0
 3730 007d 8008      		.uleb128 .LBE90-.Ltext0
 3731 007f 04        		.byte	0x4
 3732 0080 8608      		.uleb128 .LBB93-.Ltext0
 3733 0082 B608      		.uleb128 .LBE93-.Ltext0
 3734 0084 00        		.byte	0
 3735               	.Ldebug_ranges3:
 3736               		.section	.debug_line,"",@progbits
 3737               	.Ldebug_line0:
 3738 0000 0000 0621 		.section	.debug_str,"MS",@progbits,1
 3738      0003 0000 
 3738      0029 0201 
 3738      FB0E 0D00 
 3738      0101 0101 
 3739               	.LASF36:
 3740 0000 696E 6974 		.string	"init_stack"
 3740      5F73 7461 
 3740      636B 00
 3741               	.LASF16:
 3742 000b 7374 6163 		.string	"stacks"
 3742      6B73 00
 3743               	.LASF8:
 3744 0012 6E65 7874 		.string	"next"


 3744      00
 3745               	.LASF19:
 3746 0017 6375 7272 		.string	"curr_task"
 3746      5F74 6173 
 3746      6B00 
 3747               	.LASF40:
 3748 0021 6375 7272 		.string	"curr"
 3748      00
 3749               	.LASF42:
 3750 0026 6D74 6B5F 		.string	"mtk_c.c"
 3750      632E 6300 
 3751               	.LASF21:
 3752 002e 6669 7273 		.string	"first_task"
 3752      745F 7461 
 3752      736B 00
 3753               	.LASF43:
 3754 0039 2F68 6F6D 		.string	"/home/students/9698848454/soft2/section1/mtk"
 3754      652F 7374 
 3754      7564 656E 
 3754      7473 2F39 
 3754      3639 3838 
 3755               	.LASF0:
 3756 0066 636F 756E 		.string	"count"
 3756      7400 
 3757               	.LASF44:
 3758 006c 7076 5F68 		.string	"pv_handler"
 3758      616E 646C 
 3758      6572 00
 3759               	.LASF28:
 3760 0077 7368 6F72 		.string	"short unsigned int"
 3760      7420 756E 
 3760      7369 676E 
 3760      6564 2069 
 3760      6E74 00
 3761               	.LASF7:
 3762 008a 7374 6174 		.string	"status"
 3762      7573 00
 3763               	.LASF37:
 3764 0091 7265 6D6F 		.string	"removeq"
 3764      7665 7100 
 3765               	.LASF9:
 3766 0099 5443 425F 		.string	"TCB_TYPE"
 3766      5459 5045 
 3766      00
 3767               	.LASF22:
 3768 00a2 696E 6974 		.string	"init_timer"
 3768      5F74 696D 
 3768      6572 00
 3769               	.LASF17:
 3770 00ad 7365 6D61 		.string	"semaphore"
 3770      7068 6F72 
 3770      6500 
 3771               	.LASF26:
 3772 00b7 7365 745F 		.string	"set_task"
 3772      7461 736B 
 3772      00
 3773               	.LASF1:


 3774 00c0 7461 736B 		.string	"task_list"
 3774      5F6C 6973 
 3774      7400 
 3775               	.LASF12:
 3776 00ca 6C6F 6E67 		.string	"long unsigned int"
 3776      2075 6E73 
 3776      6967 6E65 
 3776      6420 696E 
 3776      7400 
 3777               	.LASF4:
 3778 00dc 7461 736B 		.string	"task_addr"
 3778      5F61 6464 
 3778      7200 
 3779               	.LASF6:
 3780 00e6 7072 696F 		.string	"priority"
 3780      7269 7479 
 3780      00
 3781               	.LASF27:
 3782 00ef 756E 7369 		.string	"unsigned char"
 3782      676E 6564 
 3782      2063 6861 
 3782      7200 
 3783               	.LASF10:
 3784 00fd 7573 7461 		.string	"ustack"
 3784      636B 00
 3785               	.LASF20:
 3786 0104 6E65 7874 		.string	"next_task"
 3786      5F74 6173 
 3786      6B00 
 3787               	.LASF5:
 3788 010e 7374 6163 		.string	"stack_ptr"
 3788      6B5F 7074 
 3788      7200 
 3789               	.LASF38:
 3790 0118 6865 6164 		.string	"head"
 3790      00
 3791               	.LASF41:
 3792 011d 474E 5520 		.string	"GNU C17 11.4.0 -mcpu=68000 -msoft-float -g -O2 -fomit-frame-pointer"
 3792      4331 3720 
 3792      3131 2E34 
 3792      2E30 202D 
 3792      6D63 7075 
 3793               	.LASF14:
 3794 0161 5354 4143 		.string	"STACK_TYPE"
 3794      4B5F 5459 
 3794      5045 00
 3795               	.LASF29:
 3796 016c 765F 626F 		.string	"v_body"
 3796      6479 00
 3797               	.LASF18:
 3798 0173 7265 6164 		.string	"ready"
 3798      7900 
 3799               	.LASF13:
 3800 0179 6368 6172 		.string	"char"
 3800      00
 3801               	.LASF2:
 3802 017e 5441 534B 		.string	"TASK_ID_TYPE"


 3802      5F49 445F 
 3802      5459 5045 
 3802      00
 3803               	.LASF30:
 3804 018b 6675 6E63 		.string	"func"
 3804      00
 3805               	.LASF25:
 3806 0190 696E 6974 		.string	"init_kernel"
 3806      5F6B 6572 
 3806      6E65 6C00 
 3807               	.LASF32:
 3808 019c 705F 626F 		.string	"p_body"
 3808      6479 00
 3809               	.LASF33:
 3810 01a3 7761 6B65 		.string	"wakeup"
 3810      7570 00
 3811               	.LASF23:
 3812 01aa 7377 7463 		.string	"swtch"
 3812      6800 
 3813               	.LASF24:
 3814 01b0 6265 6769 		.string	"begin_sch"
 3814      6E5F 7363 
 3814      6800 
 3815               	.LASF11:
 3816 01ba 7373 7461 		.string	"sstack"
 3816      636B 00
 3817               	.LASF3:
 3818 01c1 5345 4D41 		.string	"SEMAPHORE_TYPE"
 3818      5048 4F52 
 3818      455F 5459 
 3818      5045 00
 3819               	.LASF34:
 3820 01d0 736C 6565 		.string	"sleep"
 3820      7000 
 3821               	.LASF35:
 3822 01d6 7363 6865 		.string	"sched"
 3822      6400 
 3823               	.LASF31:
 3824 01dc 7365 6D5F 		.string	"sem_id"
 3824      6964 00
 3825               	.LASF39:
 3826 01e3 6164 6471 		.string	"addq"
 3826      00
 3827               	.LASF15:
 3828 01e8 7461 736B 		.string	"task_tab"
 3828      5F74 6162 
 3828      00
 3829               		.ident	"GCC: (GNU) 11.4.0"




   1               	/* outchr.s : 中難度Option (link/unlk版) */
   2               	
   3               	    .section .text
   4               	    .global outbyte
   5               	    .even
   6               	    
   7               	    /* 定数定義 */
   8               	    .equ SYSCALL_NUM_PUTSTRING, 2
   9               	
  10               	outbyte:
  11               	    /* 1. スタックフレームの作成 (バッファ確保) */
  12               	    /* 旧FP保存 -> FP更新 -> スタック4バイト確保(-4) */
  13 0000 4E56 FFFC 	    link    %a6, #-4
  14               	
  15               	    /* 2. レジスタの退避 */
  16 0004 48E7 3000 	    movem.l %d2-%d3, -(%sp)
  17               	
  18               	    /* 3. 引数の取得 (ここが便利！) */
  19               	    /* linkを使った場合、引数は必ず 8(%a6) 以降にあります */
  20               	    /* 0(%a6) = 旧フレームポインタ
  21               	       4(%a6) = 戻り番地
  22               	       8(%a6) = 第1引数 (char c)
  23               	    */
  24 0008 202E 0008 	    move.l  8(%a6), %d0     /* 引数cをレジスタに取り出す */
  25               	    
  26               	    /* 4. ローカル変数(バッファ)への書き込み */
  27               	    /* 確保した -4(%a6) の領域にデータを置く */
  28 000c 1D40 FFFC 	    move.b  %d0, -4(%a6)
  29               	
  30               	retry_out:
  31 0010 7002      	    move.l  #SYSCALL_NUM_PUTSTRING, %d0
  32 0012 7200      	    move.l  #0, %d1
  33               	
  34               	    /* 5. バッファアドレスの指定 */
  35               	    /* フレームポインタ基準で -4 の位置のアドレスを計算 */
  36 0014 41EE FFFC 	    lea     -4(%a6), %a0
  37 0018 2408      	    move.l  %a0, %d2
  38               	
  39 001a 7601      	    move.l  #1, %d3
  40 001c 4E40      	    trap    #0
  41               	
  42               	    /* 6. 戻り値チェック (0文字ならリトライ) */
  43 001e 4A80      	    tst.l   %d0
  44 0020 6700 FFEE 	    beq     retry_out
  45               	
  46               	    /* 7. レジスタの復帰 */
  47 0024 4CDF 000C 	    movem.l (%sp)+, %d2-%d3
  48               	
  49               	    /* 8. スタックフレームの破棄 */
  50 0028 4E5E      	    unlk    %a6
  51               	
  52 002a 4E75      	    rts




   1               	#NO_APP
   2               		.file	"test2.c"
   3               		.text
   4               	.Ltext0:
   5               		.cfi_sections	.debug_frame
   6               		.align	2
   7               		.globl	task1
   8               		.type	task1, @function
   9               	task1:
  10               	.LFB3:
  11               		.file 1 "test2.c"
   1:test2.c       **** /* test2.c */
   2:test2.c       **** /* マルチタスク動作確認用プログラム */
   3:test2.c       **** 
   4:test2.c       **** #include <stdio.h>
   5:test2.c       **** #include "mtk_c.h"
   6:test2.c       **** 
   7:test2.c       **** /* 動作確認用タスク1 */
   8:test2.c       **** void task1() {
  12               		.loc 1 8 14 view -0
  13               		.cfi_startproc
  14 0000 598F      		subq.l #4,%sp
  15               		.cfi_def_cfa_offset 8
  16 0002 2F0B      		move.l %a3,-(%sp)
  17               		.cfi_def_cfa_offset 12
  18               		.cfi_offset 11, -12
  19 0004 2F0A      		move.l %a2,-(%sp)
  20               		.cfi_def_cfa_offset 16
  21               		.cfi_offset 10, -16
  22 0006 47F9 0000 		lea putchar,%a3
  22      0000 
  23 000c 45F9 0000 		lea fflush,%a2
  23      0000 
  24               	.L4:
   9:test2.c       ****     volatile int i;
  25               		.loc 1 9 5 view .LVU1
  10:test2.c       ****     while (1) {
  26               		.loc 1 10 5 view .LVU2
  11:test2.c       ****         /* "1" を表示し続ける */
  12:test2.c       ****         printf("1");
  27               		.loc 1 12 9 view .LVU3
  28 0012 4878 0031 		pea 49.w
  29               		.cfi_def_cfa_offset 20
  30 0016 4E93      		jsr (%a3)
  31               	.LVL0:
  13:test2.c       **** 	fflush(stdout);
  32               		.loc 1 13 2 view .LVU4
  33               		.loc 1 13 9 is_stmt 0 view .LVU5
  34 0018 2079 0000 		move.l _impure_ptr,%a0
  34      0000 
  35               		.loc 1 13 2 view .LVU6
  36 001e 2F28 0008 		move.l 8(%a0),-(%sp)
  37               		.cfi_def_cfa_offset 24
  38 0022 4E92      		jsr (%a2)
  39               	.LVL1:
  14:test2.c       ****         
  15:test2.c       ****         /* 表示が速すぎると見にくいので少しウェイトを入れる */


  16:test2.c       ****         for (i = 0; i < 10000; i++);
  40               		.loc 1 16 9 is_stmt 1 view .LVU7
  41               		.loc 1 16 16 is_stmt 0 view .LVU8
  42 0024 7000      		moveq #0,%d0
  43 0026 2F40 0010 		move.l %d0,16(%sp)
  44               		.loc 1 16 23 is_stmt 1 view .LVU9
  45 002a 202F 0010 		move.l 16(%sp),%d0
  46 002e 508F      		addq.l #8,%sp
  47               		.cfi_def_cfa_offset 16
  48 0030 0C80 0000 		cmp.l #9999,%d0
  48      270F 
  49 0036 6EDA      		jgt .L4
  50               	.L3:
  51               		.loc 1 16 33 discriminator 3 view .LVU10
  52 0038 202F 0008 		move.l 8(%sp),%d0
  53 003c 5280      		addq.l #1,%d0
  54 003e 2F40 0008 		move.l %d0,8(%sp)
  55               		.loc 1 16 23 discriminator 3 view .LVU11
  56 0042 202F 0008 		move.l 8(%sp),%d0
  57 0046 0C80 0000 		cmp.l #9999,%d0
  57      270F 
  58 004c 6EC4      		jgt .L4
  59               		.loc 1 16 33 view .LVU12
  60 004e 202F 0008 		move.l 8(%sp),%d0
  61 0052 5280      		addq.l #1,%d0
  62 0054 2F40 0008 		move.l %d0,8(%sp)
  63               		.loc 1 16 23 view .LVU13
  64 0058 202F 0008 		move.l 8(%sp),%d0
  65 005c 0C80 0000 		cmp.l #9999,%d0
  65      270F 
  66 0062 6FD4      		jle .L3
  67 0064 60AC      		jra .L4
  68               		.cfi_endproc
  69               	.LFE3:
  70               		.size	task1, .-task1
  71               		.align	2
  72               		.globl	task2
  73               		.type	task2, @function
  74               	task2:
  75               	.LFB4:
  17:test2.c       ****     }
  18:test2.c       **** }
  19:test2.c       **** 
  20:test2.c       **** /* 動作確認用タスク2 */
  21:test2.c       **** void task2() {
  76               		.loc 1 21 14 view -0
  77               		.cfi_startproc
  78 0066 598F      		subq.l #4,%sp
  79               		.cfi_def_cfa_offset 8
  80 0068 2F0B      		move.l %a3,-(%sp)
  81               		.cfi_def_cfa_offset 12
  82               		.cfi_offset 11, -12
  83 006a 2F0A      		move.l %a2,-(%sp)
  84               		.cfi_def_cfa_offset 16
  85               		.cfi_offset 10, -16
  86 006c 47F9 0000 		lea putchar,%a3
  86      0000 


  87 0072 45F9 0000 		lea fflush,%a2
  87      0000 
  88               	.L12:
  22:test2.c       ****     volatile int i;
  89               		.loc 1 22 5 view .LVU15
  23:test2.c       ****     while (1) {
  90               		.loc 1 23 5 view .LVU16
  24:test2.c       ****         /* "2" を表示し続ける */
  25:test2.c       ****         printf("2");
  91               		.loc 1 25 9 view .LVU17
  92 0078 4878 0032 		pea 50.w
  93               		.cfi_def_cfa_offset 20
  94 007c 4E93      		jsr (%a3)
  95               	.LVL2:
  26:test2.c       **** 	fflush(stdout);
  96               		.loc 1 26 2 view .LVU18
  97               		.loc 1 26 9 is_stmt 0 view .LVU19
  98 007e 2079 0000 		move.l _impure_ptr,%a0
  98      0000 
  99               		.loc 1 26 2 view .LVU20
 100 0084 2F28 0008 		move.l 8(%a0),-(%sp)
 101               		.cfi_def_cfa_offset 24
 102 0088 4E92      		jsr (%a2)
 103               	.LVL3:
  27:test2.c       ****         
  28:test2.c       ****         /* 表示が速すぎると見にくいので少しウェイトを入れる */
  29:test2.c       ****         for (i = 0; i < 10000; i++);
 104               		.loc 1 29 9 is_stmt 1 view .LVU21
 105               		.loc 1 29 16 is_stmt 0 view .LVU22
 106 008a 7000      		moveq #0,%d0
 107 008c 2F40 0010 		move.l %d0,16(%sp)
 108               		.loc 1 29 23 is_stmt 1 view .LVU23
 109 0090 202F 0010 		move.l 16(%sp),%d0
 110 0094 508F      		addq.l #8,%sp
 111               		.cfi_def_cfa_offset 16
 112 0096 0C80 0000 		cmp.l #9999,%d0
 112      270F 
 113 009c 6EDA      		jgt .L12
 114               	.L11:
 115               		.loc 1 29 33 discriminator 3 view .LVU24
 116 009e 202F 0008 		move.l 8(%sp),%d0
 117 00a2 5280      		addq.l #1,%d0
 118 00a4 2F40 0008 		move.l %d0,8(%sp)
 119               		.loc 1 29 23 discriminator 3 view .LVU25
 120 00a8 202F 0008 		move.l 8(%sp),%d0
 121 00ac 0C80 0000 		cmp.l #9999,%d0
 121      270F 
 122 00b2 6EC4      		jgt .L12
 123               		.loc 1 29 33 view .LVU26
 124 00b4 202F 0008 		move.l 8(%sp),%d0
 125 00b8 5280      		addq.l #1,%d0
 126 00ba 2F40 0008 		move.l %d0,8(%sp)
 127               		.loc 1 29 23 view .LVU27
 128 00be 202F 0008 		move.l 8(%sp),%d0
 129 00c2 0C80 0000 		cmp.l #9999,%d0
 129      270F 
 130 00c8 6FD4      		jle .L11


 131 00ca 60AC      		jra .L12
 132               		.cfi_endproc
 133               	.LFE4:
 134               		.size	task2, .-task2
 135               		.align	2
 136               		.globl	exit
 137               		.type	exit, @function
 138               	exit:
 139               	.LFB5:
  30:test2.c       ****     }
  31:test2.c       **** }
  32:test2.c       **** 
  33:test2.c       **** /* ユーザ定義 exit() (テーマ1からの引き継ぎ) */
  34:test2.c       **** void exit(int status) {
 140               		.loc 1 34 23 view -0
 141               		.cfi_startproc
 142               	.LVL4:
 143               	.L18:
  35:test2.c       ****     /* ここに来ることは想定していないが、暴走防止のため無限ループ */
  36:test2.c       ****     while(1);
 144               		.loc 1 36 5 discriminator 1 view .LVU29
 145               		.loc 1 36 10 discriminator 1 view .LVU30
 146 00cc 60FE      		jra .L18
 147               		.cfi_endproc
 148               	.LFE5:
 149               		.size	exit, .-exit
 150               		.section	.text.startup,"ax",@progbits
 151               		.align	2
 152               		.globl	main
 153               		.type	main, @function
 154               	main:
 155               	.LFB6:
  37:test2.c       **** }
  38:test2.c       **** 
  39:test2.c       **** int main() {
 156               		.loc 1 39 12 view -0
 157               		.cfi_startproc
 158 0000 2F0A      		move.l %a2,-(%sp)
 159               		.cfi_def_cfa_offset 8
 160               		.cfi_offset 10, -8
  40:test2.c       ****     /* 1. カーネルの初期化 */
  41:test2.c       ****     /* TCB、セマフォ、割り込みベクタ(TRAP #1)の設定 */
  42:test2.c       ****     init_kernel();
 161               		.loc 1 42 5 view .LVU32
 162 0002 4EB9 0000 		jsr init_kernel
 162      0000 
 163               	.LVL5:
  43:test2.c       **** 
  44:test2.c       ****     /* 2. タスクの登録 */
  45:test2.c       ****     /* ユーザ関数をタスクとして登録する */
  46:test2.c       ****     set_task(task1);
 164               		.loc 1 46 5 view .LVU33
 165 0008 4879 0000 		pea task1
 165      0000 
 166               		.cfi_def_cfa_offset 12
 167 000e 45F9 0000 		lea set_task,%a2
 167      0000 


 168 0014 4E92      		jsr (%a2)
 169               	.LVL6:
  47:test2.c       ****     set_task(task2);
 170               		.loc 1 47 5 view .LVU34
 171 0016 4879 0000 		pea task2
 171      0000 
 172               		.cfi_def_cfa_offset 16
 173 001c 4E92      		jsr (%a2)
 174               	.LVL7:
  48:test2.c       **** 
  49:test2.c       ****     /* 3. マルチタスクの開始 */
  50:test2.c       ****     /* ここでタイマが起動し、最初のタスクへジャンプする */
  51:test2.c       ****     /* これ以降、main関数には戻ってこない */
  52:test2.c       ****     begin_sch();
 175               		.loc 1 52 5 view .LVU35
 176 001e 4EB9 0000 		jsr begin_sch
 176      0000 
 177               	.LVL8:
  53:test2.c       **** 
  54:test2.c       ****     return 0;
 178               		.loc 1 54 5 view .LVU36
  55:test2.c       **** }
 179               		.loc 1 55 1 is_stmt 0 view .LVU37
 180 0024 508F      		addq.l #8,%sp
 181               		.cfi_def_cfa_offset 8
 182 0026 7000      		moveq #0,%d0
 183 0028 245F      		move.l (%sp)+,%a2
 184 002a 4E75      		rts
 185               		.cfi_endproc
 186               	.LFE6:
 187               		.size	main, .-main
 188               		.text
 189               	.Letext0:
 190               		.file 2 "/usr/local/lib/gcc/m68k-elf/11.4.0/include/stddef.h"
 191               		.file 3 "/usr/local/m68k-elf/include/sys/_types.h"
 192               		.file 4 "/usr/local/m68k-elf/include/sys/reent.h"
 193               		.file 5 "/usr/local/m68k-elf/include/sys/lock.h"
 194               		.file 6 "/usr/local/m68k-elf/include/stdio.h"
 195               		.file 7 "mtk_c.h"
 196               		.file 8 "<built-in>"
 197               		.section	.debug_info,"",@progbits
 198               	.Ldebug_info0:
 199 0000 0000 082B 		.long	0x82b
 200 0004 0005      		.word	0x5
 201 0006 01        		.byte	0x1
 202 0007 04        		.byte	0x4
 203 0008 0000 0000 		.long	.Ldebug_abbrev0
 204 000c 13        		.uleb128 0x13
 205 000d 0000 0000 		.long	.LASF103
 206 0011 1D        		.byte	0x1d
 207 0012 0000 0000 		.long	.LASF104
 208 0016 0000 0000 		.long	.LASF105
 209 001a 0000 0000 		.long	.LLRL1
 210 001e 0000 0000 		.long	0
 211 0022 0000 0000 		.long	.Ldebug_line0
 212 0026 05        		.uleb128 0x5
 213 0027 01        		.byte	0x1


 214 0028 06        		.byte	0x6
 215 0029 0000 0000 		.long	.LASF0
 216 002d 05        		.uleb128 0x5
 217 002e 01        		.byte	0x1
 218 002f 08        		.byte	0x8
 219 0030 0000 0000 		.long	.LASF1
 220 0034 05        		.uleb128 0x5
 221 0035 02        		.byte	0x2
 222 0036 05        		.byte	0x5
 223 0037 0000 0000 		.long	.LASF2
 224 003b 05        		.uleb128 0x5
 225 003c 02        		.byte	0x2
 226 003d 07        		.byte	0x7
 227 003e 0000 0000 		.long	.LASF3
 228 0042 05        		.uleb128 0x5
 229 0043 04        		.byte	0x4
 230 0044 05        		.byte	0x5
 231 0045 0000 0000 		.long	.LASF4
 232 0049 05        		.uleb128 0x5
 233 004a 04        		.byte	0x4
 234 004b 07        		.byte	0x7
 235 004c 0000 0000 		.long	.LASF5
 236 0050 05        		.uleb128 0x5
 237 0051 08        		.byte	0x8
 238 0052 05        		.byte	0x5
 239 0053 0000 0000 		.long	.LASF6
 240 0057 05        		.uleb128 0x5
 241 0058 08        		.byte	0x8
 242 0059 07        		.byte	0x7
 243 005a 0000 0000 		.long	.LASF7
 244 005e 05        		.uleb128 0x5
 245 005f 0C        		.byte	0xc
 246 0060 04        		.byte	0x4
 247 0061 0000 0000 		.long	.LASF8
 248 0065 0D        		.uleb128 0xd
 249 0066 0000 0000 		.long	.LASF10
 250 006a 02        		.byte	0x2
 251 006b 015E      		.word	0x15e
 252 006d 17        		.byte	0x17
 253 006e 0000 0072 		.long	0x72
 254 0072 05        		.uleb128 0x5
 255 0073 04        		.byte	0x4
 256 0074 07        		.byte	0x7
 257 0075 0000 0000 		.long	.LASF9
 258 0079 09        		.uleb128 0x9
 259 007a 0000 0000 		.long	.LASF11
 260 007e 03        		.byte	0x3
 261 007f 2E        		.byte	0x2e
 262 0080 0E        		.byte	0xe
 263 0081 0000 0042 		.long	0x42
 264 0085 14        		.uleb128 0x14
 265 0086 04        		.byte	0x4
 266 0087 05        		.byte	0x5
 267 0088 696E 7400 		.string	"int"
 268 008c 15        		.uleb128 0x15
 269 008d 0000 0085 		.long	0x85
 270 0091 09        		.uleb128 0x9


 271 0092 0000 0000 		.long	.LASF12
 272 0096 03        		.byte	0x3
 273 0097 74        		.byte	0x74
 274 0098 0E        		.byte	0xe
 275 0099 0000 0042 		.long	0x42
 276 009d 09        		.uleb128 0x9
 277 009e 0000 0000 		.long	.LASF13
 278 00a2 03        		.byte	0x3
 279 00a3 93        		.byte	0x93
 280 00a4 17        		.byte	0x17
 281 00a5 0000 0042 		.long	0x42
 282 00a9 16        		.uleb128 0x16
 283 00aa 04        		.byte	0x4
 284 00ab 03        		.byte	0x3
 285 00ac A5        		.byte	0xa5
 286 00ad 03        		.byte	0x3
 287 00ae 0000 00C9 		.long	0xc9
 288 00b2 0E        		.uleb128 0xe
 289 00b3 0000 0000 		.long	.LASF14
 290 00b7 A7        		.byte	0xa7
 291 00b8 0C        		.byte	0xc
 292 00b9 0000 0065 		.long	0x65
 293 00bd 0E        		.uleb128 0xe
 294 00be 0000 0000 		.long	.LASF15
 295 00c2 A8        		.byte	0xa8
 296 00c3 13        		.byte	0x13
 297 00c4 0000 00C9 		.long	0xc9
 298 00c8 00        		.byte	0
 299 00c9 07        		.uleb128 0x7
 300 00ca 0000 002D 		.long	0x2d
 301 00ce 0000 00D9 		.long	0xd9
 302 00d2 08        		.uleb128 0x8
 303 00d3 0000 0049 		.long	0x49
 304 00d7 03        		.byte	0x3
 305 00d8 00        		.byte	0
 306 00d9 17        		.uleb128 0x17
 307 00da 08        		.byte	0x8
 308 00db 03        		.byte	0x3
 309 00dc A2        		.byte	0xa2
 310 00dd 09        		.byte	0x9
 311 00de 0000 00FD 		.long	0xfd
 312 00e2 02        		.uleb128 0x2
 313 00e3 0000 0000 		.long	.LASF16
 314 00e7 03        		.byte	0x3
 315 00e8 A4        		.byte	0xa4
 316 00e9 07        		.byte	0x7
 317 00ea 0000 0085 		.long	0x85
 318 00ee 00        		.byte	0
 319 00ef 02        		.uleb128 0x2
 320 00f0 0000 0000 		.long	.LASF17
 321 00f4 03        		.byte	0x3
 322 00f5 A9        		.byte	0xa9
 323 00f6 05        		.byte	0x5
 324 00f7 0000 00A9 		.long	0xa9
 325 00fb 04        		.byte	0x4
 326 00fc 00        		.byte	0
 327 00fd 09        		.uleb128 0x9


 328 00fe 0000 0000 		.long	.LASF18
 329 0102 03        		.byte	0x3
 330 0103 AA        		.byte	0xaa
 331 0104 03        		.byte	0x3
 332 0105 0000 00D9 		.long	0xd9
 333 0109 18        		.uleb128 0x18
 334 010a 04        		.byte	0x4
 335 010b 09        		.uleb128 0x9
 336 010c 0000 0000 		.long	.LASF19
 337 0110 04        		.byte	0x4
 338 0111 16        		.byte	0x16
 339 0112 19        		.byte	0x19
 340 0113 0000 0049 		.long	0x49
 341 0117 09        		.uleb128 0x9
 342 0118 0000 0000 		.long	.LASF20
 343 011c 05        		.byte	0x5
 344 011d 0C        		.byte	0xc
 345 011e 0D        		.byte	0xd
 346 011f 0000 0085 		.long	0x85
 347 0123 09        		.uleb128 0x9
 348 0124 0000 0000 		.long	.LASF21
 349 0128 04        		.byte	0x4
 350 0129 23        		.byte	0x23
 351 012a 1B        		.byte	0x1b
 352 012b 0000 0117 		.long	0x117
 353 012f 0B        		.uleb128 0xb
 354 0130 0000 0000 		.long	.LASF26
 355 0134 18        		.byte	0x18
 356 0135 34        		.byte	0x34
 357 0136 0000 0185 		.long	0x185
 358 013a 02        		.uleb128 0x2
 359 013b 0000 0000 		.long	.LASF22
 360 013f 04        		.byte	0x4
 361 0140 36        		.byte	0x36
 362 0141 13        		.byte	0x13
 363 0142 0000 0185 		.long	0x185
 364 0146 00        		.byte	0
 365 0147 06        		.uleb128 0x6
 366 0148 5F6B 00   		.string	"_k"
 367 014b 37        		.byte	0x37
 368 014c 07        		.byte	0x7
 369 014d 0000 0085 		.long	0x85
 370 0151 04        		.byte	0x4
 371 0152 02        		.uleb128 0x2
 372 0153 0000 0000 		.long	.LASF23
 373 0157 04        		.byte	0x4
 374 0158 37        		.byte	0x37
 375 0159 0B        		.byte	0xb
 376 015a 0000 0085 		.long	0x85
 377 015e 08        		.byte	0x8
 378 015f 02        		.uleb128 0x2
 379 0160 0000 0000 		.long	.LASF24
 380 0164 04        		.byte	0x4
 381 0165 37        		.byte	0x37
 382 0166 14        		.byte	0x14
 383 0167 0000 0085 		.long	0x85
 384 016b 0C        		.byte	0xc


 385 016c 02        		.uleb128 0x2
 386 016d 0000 0000 		.long	.LASF25
 387 0171 04        		.byte	0x4
 388 0172 37        		.byte	0x37
 389 0173 1B        		.byte	0x1b
 390 0174 0000 0085 		.long	0x85
 391 0178 10        		.byte	0x10
 392 0179 06        		.uleb128 0x6
 393 017a 5F78 00   		.string	"_x"
 394 017d 38        		.byte	0x38
 395 017e 0B        		.byte	0xb
 396 017f 0000 018A 		.long	0x18a
 397 0183 14        		.byte	0x14
 398 0184 00        		.byte	0
 399 0185 04        		.uleb128 0x4
 400 0186 0000 012F 		.long	0x12f
 401 018a 07        		.uleb128 0x7
 402 018b 0000 010B 		.long	0x10b
 403 018f 0000 019A 		.long	0x19a
 404 0193 08        		.uleb128 0x8
 405 0194 0000 0049 		.long	0x49
 406 0198 00        		.byte	0
 407 0199 00        		.byte	0
 408 019a 0B        		.uleb128 0xb
 409 019b 0000 0000 		.long	.LASF27
 410 019f 24        		.byte	0x24
 411 01a0 3C        		.byte	0x3c
 412 01a1 0000 021B 		.long	0x21b
 413 01a5 02        		.uleb128 0x2
 414 01a6 0000 0000 		.long	.LASF28
 415 01aa 04        		.byte	0x4
 416 01ab 3E        		.byte	0x3e
 417 01ac 09        		.byte	0x9
 418 01ad 0000 0085 		.long	0x85
 419 01b1 00        		.byte	0
 420 01b2 02        		.uleb128 0x2
 421 01b3 0000 0000 		.long	.LASF29
 422 01b7 04        		.byte	0x4
 423 01b8 3F        		.byte	0x3f
 424 01b9 09        		.byte	0x9
 425 01ba 0000 0085 		.long	0x85
 426 01be 04        		.byte	0x4
 427 01bf 02        		.uleb128 0x2
 428 01c0 0000 0000 		.long	.LASF30
 429 01c4 04        		.byte	0x4
 430 01c5 40        		.byte	0x40
 431 01c6 09        		.byte	0x9
 432 01c7 0000 0085 		.long	0x85
 433 01cb 08        		.byte	0x8
 434 01cc 02        		.uleb128 0x2
 435 01cd 0000 0000 		.long	.LASF31
 436 01d1 04        		.byte	0x4
 437 01d2 41        		.byte	0x41
 438 01d3 09        		.byte	0x9
 439 01d4 0000 0085 		.long	0x85
 440 01d8 0C        		.byte	0xc
 441 01d9 02        		.uleb128 0x2


 442 01da 0000 0000 		.long	.LASF32
 443 01de 04        		.byte	0x4
 444 01df 42        		.byte	0x42
 445 01e0 09        		.byte	0x9
 446 01e1 0000 0085 		.long	0x85
 447 01e5 10        		.byte	0x10
 448 01e6 02        		.uleb128 0x2
 449 01e7 0000 0000 		.long	.LASF33
 450 01eb 04        		.byte	0x4
 451 01ec 43        		.byte	0x43
 452 01ed 09        		.byte	0x9
 453 01ee 0000 0085 		.long	0x85
 454 01f2 14        		.byte	0x14
 455 01f3 02        		.uleb128 0x2
 456 01f4 0000 0000 		.long	.LASF34
 457 01f8 04        		.byte	0x4
 458 01f9 44        		.byte	0x44
 459 01fa 09        		.byte	0x9
 460 01fb 0000 0085 		.long	0x85
 461 01ff 18        		.byte	0x18
 462 0200 02        		.uleb128 0x2
 463 0201 0000 0000 		.long	.LASF35
 464 0205 04        		.byte	0x4
 465 0206 45        		.byte	0x45
 466 0207 09        		.byte	0x9
 467 0208 0000 0085 		.long	0x85
 468 020c 1C        		.byte	0x1c
 469 020d 02        		.uleb128 0x2
 470 020e 0000 0000 		.long	.LASF36
 471 0212 04        		.byte	0x4
 472 0213 46        		.byte	0x46
 473 0214 09        		.byte	0x9
 474 0215 0000 0085 		.long	0x85
 475 0219 20        		.byte	0x20
 476 021a 00        		.byte	0
 477 021b 0B        		.uleb128 0xb
 478 021c 0000 0000 		.long	.LASF37
 479 0220 08        		.byte	0x8
 480 0221 73        		.byte	0x73
 481 0222 0000 0241 		.long	0x241
 482 0226 02        		.uleb128 0x2
 483 0227 0000 0000 		.long	.LASF38
 484 022b 04        		.byte	0x4
 485 022c 74        		.byte	0x74
 486 022d 11        		.byte	0x11
 487 022e 0000 0241 		.long	0x241
 488 0232 00        		.byte	0
 489 0233 02        		.uleb128 0x2
 490 0234 0000 0000 		.long	.LASF39
 491 0238 04        		.byte	0x4
 492 0239 75        		.byte	0x75
 493 023a 06        		.byte	0x6
 494 023b 0000 0085 		.long	0x85
 495 023f 04        		.byte	0x4
 496 0240 00        		.byte	0
 497 0241 04        		.uleb128 0x4
 498 0242 0000 002D 		.long	0x2d


 499 0246 0B        		.uleb128 0xb
 500 0247 0000 0000 		.long	.LASF40
 501 024b 68        		.byte	0x68
 502 024c 98        		.byte	0x98
 503 024d 0000 037F 		.long	0x37f
 504 0251 06        		.uleb128 0x6
 505 0252 5F70 00   		.string	"_p"
 506 0255 99        		.byte	0x99
 507 0256 12        		.byte	0x12
 508 0257 0000 0241 		.long	0x241
 509 025b 00        		.byte	0
 510 025c 06        		.uleb128 0x6
 511 025d 5F72 00   		.string	"_r"
 512 0260 9A        		.byte	0x9a
 513 0261 07        		.byte	0x7
 514 0262 0000 0085 		.long	0x85
 515 0266 04        		.byte	0x4
 516 0267 06        		.uleb128 0x6
 517 0268 5F77 00   		.string	"_w"
 518 026b 9B        		.byte	0x9b
 519 026c 07        		.byte	0x7
 520 026d 0000 0085 		.long	0x85
 521 0271 08        		.byte	0x8
 522 0272 02        		.uleb128 0x2
 523 0273 0000 0000 		.long	.LASF41
 524 0277 04        		.byte	0x4
 525 0278 9C        		.byte	0x9c
 526 0279 09        		.byte	0x9
 527 027a 0000 0034 		.long	0x34
 528 027e 0C        		.byte	0xc
 529 027f 02        		.uleb128 0x2
 530 0280 0000 0000 		.long	.LASF42
 531 0284 04        		.byte	0x4
 532 0285 9D        		.byte	0x9d
 533 0286 09        		.byte	0x9
 534 0287 0000 0034 		.long	0x34
 535 028b 0E        		.byte	0xe
 536 028c 06        		.uleb128 0x6
 537 028d 5F62 6600 		.string	"_bf"
 538 0291 9E        		.byte	0x9e
 539 0292 11        		.byte	0x11
 540 0293 0000 021B 		.long	0x21b
 541 0297 10        		.byte	0x10
 542 0298 02        		.uleb128 0x2
 543 0299 0000 0000 		.long	.LASF43
 544 029d 04        		.byte	0x4
 545 029e 9F        		.byte	0x9f
 546 029f 07        		.byte	0x7
 547 02a0 0000 0085 		.long	0x85
 548 02a4 18        		.byte	0x18
 549 02a5 02        		.uleb128 0x2
 550 02a6 0000 0000 		.long	.LASF44
 551 02aa 04        		.byte	0x4
 552 02ab A6        		.byte	0xa6
 553 02ac 0A        		.byte	0xa
 554 02ad 0000 0109 		.long	0x109
 555 02b1 1C        		.byte	0x1c


 556 02b2 02        		.uleb128 0x2
 557 02b3 0000 0000 		.long	.LASF45
 558 02b7 04        		.byte	0x4
 559 02b8 A8        		.byte	0xa8
 560 02b9 1D        		.byte	0x1d
 561 02ba 0000 0495 		.long	0x495
 562 02be 20        		.byte	0x20
 563 02bf 02        		.uleb128 0x2
 564 02c0 0000 0000 		.long	.LASF46
 565 02c4 04        		.byte	0x4
 566 02c5 AA        		.byte	0xaa
 567 02c6 1D        		.byte	0x1d
 568 02c7 0000 04BD 		.long	0x4bd
 569 02cb 24        		.byte	0x24
 570 02cc 02        		.uleb128 0x2
 571 02cd 0000 0000 		.long	.LASF47
 572 02d1 04        		.byte	0x4
 573 02d2 AD        		.byte	0xad
 574 02d3 0D        		.byte	0xd
 575 02d4 0000 04E0 		.long	0x4e0
 576 02d8 28        		.byte	0x28
 577 02d9 02        		.uleb128 0x2
 578 02da 0000 0000 		.long	.LASF48
 579 02de 04        		.byte	0x4
 580 02df AE        		.byte	0xae
 581 02e0 09        		.byte	0x9
 582 02e1 0000 04F9 		.long	0x4f9
 583 02e5 2C        		.byte	0x2c
 584 02e6 06        		.uleb128 0x6
 585 02e7 5F75 6200 		.string	"_ub"
 586 02eb B1        		.byte	0xb1
 587 02ec 11        		.byte	0x11
 588 02ed 0000 021B 		.long	0x21b
 589 02f1 30        		.byte	0x30
 590 02f2 06        		.uleb128 0x6
 591 02f3 5F75 7000 		.string	"_up"
 592 02f7 B2        		.byte	0xb2
 593 02f8 12        		.byte	0x12
 594 02f9 0000 0241 		.long	0x241
 595 02fd 38        		.byte	0x38
 596 02fe 06        		.uleb128 0x6
 597 02ff 5F75 7200 		.string	"_ur"
 598 0303 B3        		.byte	0xb3
 599 0304 07        		.byte	0x7
 600 0305 0000 0085 		.long	0x85
 601 0309 3C        		.byte	0x3c
 602 030a 02        		.uleb128 0x2
 603 030b 0000 0000 		.long	.LASF49
 604 030f 04        		.byte	0x4
 605 0310 B6        		.byte	0xb6
 606 0311 11        		.byte	0x11
 607 0312 0000 04FE 		.long	0x4fe
 608 0316 40        		.byte	0x40
 609 0317 02        		.uleb128 0x2
 610 0318 0000 0000 		.long	.LASF50
 611 031c 04        		.byte	0x4
 612 031d B7        		.byte	0xb7


 613 031e 11        		.byte	0x11
 614 031f 0000 050E 		.long	0x50e
 615 0323 43        		.byte	0x43
 616 0324 06        		.uleb128 0x6
 617 0325 5F6C 6200 		.string	"_lb"
 618 0329 BA        		.byte	0xba
 619 032a 11        		.byte	0x11
 620 032b 0000 021B 		.long	0x21b
 621 032f 44        		.byte	0x44
 622 0330 02        		.uleb128 0x2
 623 0331 0000 0000 		.long	.LASF51
 624 0335 04        		.byte	0x4
 625 0336 BD        		.byte	0xbd
 626 0337 07        		.byte	0x7
 627 0338 0000 0085 		.long	0x85
 628 033c 4C        		.byte	0x4c
 629 033d 02        		.uleb128 0x2
 630 033e 0000 0000 		.long	.LASF52
 631 0342 04        		.byte	0x4
 632 0343 BE        		.byte	0xbe
 633 0344 0A        		.byte	0xa
 634 0345 0000 0079 		.long	0x79
 635 0349 50        		.byte	0x50
 636 034a 02        		.uleb128 0x2
 637 034b 0000 0000 		.long	.LASF53
 638 034f 04        		.byte	0x4
 639 0350 C1        		.byte	0xc1
 640 0351 12        		.byte	0x12
 641 0352 0000 039D 		.long	0x39d
 642 0356 54        		.byte	0x54
 643 0357 02        		.uleb128 0x2
 644 0358 0000 0000 		.long	.LASF54
 645 035c 04        		.byte	0x4
 646 035d C5        		.byte	0xc5
 647 035e 0C        		.byte	0xc
 648 035f 0000 0123 		.long	0x123
 649 0363 58        		.byte	0x58
 650 0364 02        		.uleb128 0x2
 651 0365 0000 0000 		.long	.LASF55
 652 0369 04        		.byte	0x4
 653 036a C7        		.byte	0xc7
 654 036b 0E        		.byte	0xe
 655 036c 0000 00FD 		.long	0xfd
 656 0370 5C        		.byte	0x5c
 657 0371 02        		.uleb128 0x2
 658 0372 0000 0000 		.long	.LASF56
 659 0376 04        		.byte	0x4
 660 0377 C8        		.byte	0xc8
 661 0378 09        		.byte	0x9
 662 0379 0000 0085 		.long	0x85
 663 037d 64        		.byte	0x64
 664 037e 00        		.byte	0
 665 037f 0C        		.uleb128 0xc
 666 0380 0000 009D 		.long	0x9d
 667 0384 0000 039D 		.long	0x39d
 668 0388 03        		.uleb128 0x3
 669 0389 0000 039D 		.long	0x39d


 670 038d 03        		.uleb128 0x3
 671 038e 0000 0109 		.long	0x109
 672 0392 03        		.uleb128 0x3
 673 0393 0000 0484 		.long	0x484
 674 0397 03        		.uleb128 0x3
 675 0398 0000 0085 		.long	0x85
 676 039c 00        		.byte	0
 677 039d 04        		.uleb128 0x4
 678 039e 0000 03A2 		.long	0x3a2
 679 03a2 19        		.uleb128 0x19
 680 03a3 0000 0000 		.long	.LASF57
 681 03a7 0116      		.word	0x116
 682 03a9 04        		.byte	0x4
 683 03aa 0237      		.word	0x237
 684 03ac 08        		.byte	0x8
 685 03ad 0000 0484 		.long	0x484
 686 03b1 01        		.uleb128 0x1
 687 03b2 0000 0000 		.long	.LASF58
 688 03b6 0239      		.word	0x239
 689 03b8 07        		.byte	0x7
 690 03b9 0000 0085 		.long	0x85
 691 03bd 00        		.byte	0
 692 03be 01        		.uleb128 0x1
 693 03bf 0000 0000 		.long	.LASF59
 694 03c3 023E      		.word	0x23e
 695 03c5 0B        		.byte	0xb
 696 03c6 0000 052B 		.long	0x52b
 697 03ca 04        		.byte	0x4
 698 03cb 01        		.uleb128 0x1
 699 03cc 0000 0000 		.long	.LASF60
 700 03d0 023E      		.word	0x23e
 701 03d2 14        		.byte	0x14
 702 03d3 0000 052B 		.long	0x52b
 703 03d7 08        		.byte	0x8
 704 03d8 01        		.uleb128 0x1
 705 03d9 0000 0000 		.long	.LASF61
 706 03dd 023E      		.word	0x23e
 707 03df 1E        		.byte	0x1e
 708 03e0 0000 052B 		.long	0x52b
 709 03e4 0C        		.byte	0xc
 710 03e5 01        		.uleb128 0x1
 711 03e6 0000 0000 		.long	.LASF62
 712 03ea 0240      		.word	0x240
 713 03ec 08        		.byte	0x8
 714 03ed 0000 0085 		.long	0x85
 715 03f1 10        		.byte	0x10
 716 03f2 01        		.uleb128 0x1
 717 03f3 0000 0000 		.long	.LASF63
 718 03f7 0241      		.word	0x241
 719 03f9 08        		.byte	0x8
 720 03fa 0000 06B3 		.long	0x6b3
 721 03fe 14        		.byte	0x14
 722 03ff 01        		.uleb128 0x1
 723 0400 0000 0000 		.long	.LASF64
 724 0404 0246      		.word	0x246
 725 0406 16        		.byte	0x16
 726 0407 0000 06C8 		.long	0x6c8


 727 040b 2E        		.byte	0x2e
 728 040c 01        		.uleb128 0x1
 729 040d 0000 0000 		.long	.LASF65
 730 0411 024C      		.word	0x24c
 731 0413 0A        		.byte	0xa
 732 0414 0000 06D8 		.long	0x6d8
 733 0418 32        		.byte	0x32
 734 0419 01        		.uleb128 0x1
 735 041a 0000 0000 		.long	.LASF66
 736 041e 024F      		.word	0x24f
 737 0420 13        		.byte	0x13
 738 0421 0000 0185 		.long	0x185
 739 0425 36        		.byte	0x36
 740 0426 01        		.uleb128 0x1
 741 0427 0000 0000 		.long	.LASF67
 742 042b 0250      		.word	0x250
 743 042d 07        		.byte	0x7
 744 042e 0000 0085 		.long	0x85
 745 0432 3A        		.byte	0x3a
 746 0433 01        		.uleb128 0x1
 747 0434 0000 0000 		.long	.LASF68
 748 0438 0251      		.word	0x251
 749 043a 13        		.byte	0x13
 750 043b 0000 0185 		.long	0x185
 751 043f 3E        		.byte	0x3e
 752 0440 01        		.uleb128 0x1
 753 0441 0000 0000 		.long	.LASF69
 754 0445 0252      		.word	0x252
 755 0447 14        		.byte	0x14
 756 0448 0000 06DD 		.long	0x6dd
 757 044c 42        		.byte	0x42
 758 044d 01        		.uleb128 0x1
 759 044e 0000 0000 		.long	.LASF70
 760 0452 0255      		.word	0x255
 761 0454 07        		.byte	0x7
 762 0455 0000 0085 		.long	0x85
 763 0459 46        		.byte	0x46
 764 045a 01        		.uleb128 0x1
 765 045b 0000 0000 		.long	.LASF71
 766 045f 0256      		.word	0x256
 767 0461 09        		.byte	0x9
 768 0462 0000 0484 		.long	0x484
 769 0466 4A        		.byte	0x4a
 770 0467 01        		.uleb128 0x1
 771 0468 0000 0000 		.long	.LASF72
 772 046c 0279      		.word	0x279
 773 046e 07        		.byte	0x7
 774 046f 0000 069B 		.long	0x69b
 775 0473 4E        		.byte	0x4e
 776 0474 1A        		.uleb128 0x1a
 777 0475 0000 0000 		.long	.LASF73
 778 0479 04        		.byte	0x4
 779 047a 0281      		.word	0x281
 780 047c 0B        		.byte	0xb
 781 047d 0000 06ED 		.long	0x6ed
 782 0481 0112      		.word	0x112
 783 0483 00        		.byte	0


 784 0484 04        		.uleb128 0x4
 785 0485 0000 0489 		.long	0x489
 786 0489 05        		.uleb128 0x5
 787 048a 01        		.byte	0x1
 788 048b 06        		.byte	0x6
 789 048c 0000 0000 		.long	.LASF74
 790 0490 1B        		.uleb128 0x1b
 791 0491 0000 0489 		.long	0x489
 792 0495 04        		.uleb128 0x4
 793 0496 0000 037F 		.long	0x37f
 794 049a 0C        		.uleb128 0xc
 795 049b 0000 009D 		.long	0x9d
 796 049f 0000 04B8 		.long	0x4b8
 797 04a3 03        		.uleb128 0x3
 798 04a4 0000 039D 		.long	0x39d
 799 04a8 03        		.uleb128 0x3
 800 04a9 0000 0109 		.long	0x109
 801 04ad 03        		.uleb128 0x3
 802 04ae 0000 04B8 		.long	0x4b8
 803 04b2 03        		.uleb128 0x3
 804 04b3 0000 0085 		.long	0x85
 805 04b7 00        		.byte	0
 806 04b8 04        		.uleb128 0x4
 807 04b9 0000 0490 		.long	0x490
 808 04bd 04        		.uleb128 0x4
 809 04be 0000 049A 		.long	0x49a
 810 04c2 0C        		.uleb128 0xc
 811 04c3 0000 0091 		.long	0x91
 812 04c7 0000 04E0 		.long	0x4e0
 813 04cb 03        		.uleb128 0x3
 814 04cc 0000 039D 		.long	0x39d
 815 04d0 03        		.uleb128 0x3
 816 04d1 0000 0109 		.long	0x109
 817 04d5 03        		.uleb128 0x3
 818 04d6 0000 0091 		.long	0x91
 819 04da 03        		.uleb128 0x3
 820 04db 0000 0085 		.long	0x85
 821 04df 00        		.byte	0
 822 04e0 04        		.uleb128 0x4
 823 04e1 0000 04C2 		.long	0x4c2
 824 04e5 0C        		.uleb128 0xc
 825 04e6 0000 0085 		.long	0x85
 826 04ea 0000 04F9 		.long	0x4f9
 827 04ee 03        		.uleb128 0x3
 828 04ef 0000 039D 		.long	0x39d
 829 04f3 03        		.uleb128 0x3
 830 04f4 0000 0109 		.long	0x109
 831 04f8 00        		.byte	0
 832 04f9 04        		.uleb128 0x4
 833 04fa 0000 04E5 		.long	0x4e5
 834 04fe 07        		.uleb128 0x7
 835 04ff 0000 002D 		.long	0x2d
 836 0503 0000 050E 		.long	0x50e
 837 0507 08        		.uleb128 0x8
 838 0508 0000 0049 		.long	0x49
 839 050c 02        		.byte	0x2
 840 050d 00        		.byte	0


 841 050e 07        		.uleb128 0x7
 842 050f 0000 002D 		.long	0x2d
 843 0513 0000 051E 		.long	0x51e
 844 0517 08        		.uleb128 0x8
 845 0518 0000 0049 		.long	0x49
 846 051c 00        		.byte	0
 847 051d 00        		.byte	0
 848 051e 0D        		.uleb128 0xd
 849 051f 0000 0000 		.long	.LASF75
 850 0523 04        		.byte	0x4
 851 0524 010D      		.word	0x10d
 852 0526 1A        		.byte	0x1a
 853 0527 0000 0246 		.long	0x246
 854 052b 04        		.uleb128 0x4
 855 052c 0000 051E 		.long	0x51e
 856 0530 1C        		.uleb128 0x1c
 857 0531 0000 0000 		.long	.LASF76
 858 0535 0E        		.byte	0xe
 859 0536 04        		.byte	0x4
 860 0537 0131      		.word	0x131
 861 0539 08        		.byte	0x8
 862 053a 0000 0566 		.long	0x566
 863 053e 01        		.uleb128 0x1
 864 053f 0000 0000 		.long	.LASF77
 865 0543 0132      		.word	0x132
 866 0545 12        		.byte	0x12
 867 0546 0000 0566 		.long	0x566
 868 054a 00        		.byte	0
 869 054b 01        		.uleb128 0x1
 870 054c 0000 0000 		.long	.LASF78
 871 0550 0133      		.word	0x133
 872 0552 12        		.byte	0x12
 873 0553 0000 0566 		.long	0x566
 874 0557 06        		.byte	0x6
 875 0558 01        		.uleb128 0x1
 876 0559 0000 0000 		.long	.LASF79
 877 055d 0134      		.word	0x134
 878 055f 12        		.byte	0x12
 879 0560 0000 003B 		.long	0x3b
 880 0564 0C        		.byte	0xc
 881 0565 00        		.byte	0
 882 0566 07        		.uleb128 0x7
 883 0567 0000 003B 		.long	0x3b
 884 056b 0000 0576 		.long	0x576
 885 056f 08        		.uleb128 0x8
 886 0570 0000 0049 		.long	0x49
 887 0574 02        		.byte	0x2
 888 0575 00        		.byte	0
 889 0576 1D        		.uleb128 0x1d
 890 0577 C4        		.byte	0xc4
 891 0578 04        		.byte	0x4
 892 0579 025A      		.word	0x25a
 893 057b 07        		.byte	0x7
 894 057c 0000 066B 		.long	0x66b
 895 0580 01        		.uleb128 0x1
 896 0581 0000 0000 		.long	.LASF80
 897 0585 025F      		.word	0x25f


 898 0587 12        		.byte	0x12
 899 0588 0000 0484 		.long	0x484
 900 058c 00        		.byte	0
 901 058d 01        		.uleb128 0x1
 902 058e 0000 0000 		.long	.LASF81
 903 0592 0260      		.word	0x260
 904 0594 10        		.byte	0x10
 905 0595 0000 066B 		.long	0x66b
 906 0599 04        		.byte	0x4
 907 059a 01        		.uleb128 0x1
 908 059b 0000 0000 		.long	.LASF82
 909 059f 0261      		.word	0x261
 910 05a1 17        		.byte	0x17
 911 05a2 0000 019A 		.long	0x19a
 912 05a6 1E        		.byte	0x1e
 913 05a7 01        		.uleb128 0x1
 914 05a8 0000 0000 		.long	.LASF83
 915 05ac 0262      		.word	0x262
 916 05ae 0F        		.byte	0xf
 917 05af 0000 0085 		.long	0x85
 918 05b3 42        		.byte	0x42
 919 05b4 01        		.uleb128 0x1
 920 05b5 0000 0000 		.long	.LASF84
 921 05b9 0263      		.word	0x263
 922 05bb 2C        		.byte	0x2c
 923 05bc 0000 0057 		.long	0x57
 924 05c0 46        		.byte	0x46
 925 05c1 01        		.uleb128 0x1
 926 05c2 0000 0000 		.long	.LASF85
 927 05c6 0264      		.word	0x264
 928 05c8 1A        		.byte	0x1a
 929 05c9 0000 0530 		.long	0x530
 930 05cd 4E        		.byte	0x4e
 931 05ce 01        		.uleb128 0x1
 932 05cf 0000 0000 		.long	.LASF86
 933 05d3 0265      		.word	0x265
 934 05d5 16        		.byte	0x16
 935 05d6 0000 00FD 		.long	0xfd
 936 05da 5C        		.byte	0x5c
 937 05db 01        		.uleb128 0x1
 938 05dc 0000 0000 		.long	.LASF87
 939 05e0 0266      		.word	0x266
 940 05e2 16        		.byte	0x16
 941 05e3 0000 00FD 		.long	0xfd
 942 05e7 64        		.byte	0x64
 943 05e8 01        		.uleb128 0x1
 944 05e9 0000 0000 		.long	.LASF88
 945 05ed 0267      		.word	0x267
 946 05ef 16        		.byte	0x16
 947 05f0 0000 00FD 		.long	0xfd
 948 05f4 6C        		.byte	0x6c
 949 05f5 01        		.uleb128 0x1
 950 05f6 0000 0000 		.long	.LASF89
 951 05fa 0268      		.word	0x268
 952 05fc 10        		.byte	0x10
 953 05fd 0000 067B 		.long	0x67b
 954 0601 74        		.byte	0x74


 955 0602 01        		.uleb128 0x1
 956 0603 0000 0000 		.long	.LASF90
 957 0607 0269      		.word	0x269
 958 0609 10        		.byte	0x10
 959 060a 0000 068B 		.long	0x68b
 960 060e 7C        		.byte	0x7c
 961 060f 01        		.uleb128 0x1
 962 0610 0000 0000 		.long	.LASF91
 963 0614 026A      		.word	0x26a
 964 0616 0F        		.byte	0xf
 965 0617 0000 0085 		.long	0x85
 966 061b 94        		.byte	0x94
 967 061c 01        		.uleb128 0x1
 968 061d 0000 0000 		.long	.LASF92
 969 0621 026B      		.word	0x26b
 970 0623 16        		.byte	0x16
 971 0624 0000 00FD 		.long	0xfd
 972 0628 98        		.byte	0x98
 973 0629 01        		.uleb128 0x1
 974 062a 0000 0000 		.long	.LASF93
 975 062e 026C      		.word	0x26c
 976 0630 16        		.byte	0x16
 977 0631 0000 00FD 		.long	0xfd
 978 0635 A0        		.byte	0xa0
 979 0636 01        		.uleb128 0x1
 980 0637 0000 0000 		.long	.LASF94
 981 063b 026D      		.word	0x26d
 982 063d 16        		.byte	0x16
 983 063e 0000 00FD 		.long	0xfd
 984 0642 A8        		.byte	0xa8
 985 0643 01        		.uleb128 0x1
 986 0644 0000 0000 		.long	.LASF95
 987 0648 026E      		.word	0x26e
 988 064a 16        		.byte	0x16
 989 064b 0000 00FD 		.long	0xfd
 990 064f B0        		.byte	0xb0
 991 0650 01        		.uleb128 0x1
 992 0651 0000 0000 		.long	.LASF96
 993 0655 026F      		.word	0x26f
 994 0657 16        		.byte	0x16
 995 0658 0000 00FD 		.long	0xfd
 996 065c B8        		.byte	0xb8
 997 065d 01        		.uleb128 0x1
 998 065e 0000 0000 		.long	.LASF97
 999 0662 0270      		.word	0x270
 1000 0664 08        		.byte	0x8
 1001 0665 0000 0085 		.long	0x85
 1002 0669 C0        		.byte	0xc0
 1003 066a 00        		.byte	0
 1004 066b 07        		.uleb128 0x7
 1005 066c 0000 0489 		.long	0x489
 1006 0670 0000 067B 		.long	0x67b
 1007 0674 08        		.uleb128 0x8
 1008 0675 0000 0049 		.long	0x49
 1009 0679 19        		.byte	0x19
 1010 067a 00        		.byte	0
 1011 067b 07        		.uleb128 0x7


 1012 067c 0000 0489 		.long	0x489
 1013 0680 0000 068B 		.long	0x68b
 1014 0684 08        		.uleb128 0x8
 1015 0685 0000 0049 		.long	0x49
 1016 0689 07        		.byte	0x7
 1017 068a 00        		.byte	0
 1018 068b 07        		.uleb128 0x7
 1019 068c 0000 0489 		.long	0x489
 1020 0690 0000 069B 		.long	0x69b
 1021 0694 08        		.uleb128 0x8
 1022 0695 0000 0049 		.long	0x49
 1023 0699 17        		.byte	0x17
 1024 069a 00        		.byte	0
 1025 069b 1E        		.uleb128 0x1e
 1026 069c C4        		.byte	0xc4
 1027 069d 04        		.byte	0x4
 1028 069e 0258      		.word	0x258
 1029 06a0 03        		.byte	0x3
 1030 06a1 0000 06B3 		.long	0x6b3
 1031 06a5 1F        		.uleb128 0x1f
 1032 06a6 0000 0000 		.long	.LASF57
 1033 06aa 04        		.byte	0x4
 1034 06ab 0271      		.word	0x271
 1035 06ad 0B        		.byte	0xb
 1036 06ae 0000 0576 		.long	0x576
 1037 06b2 00        		.byte	0
 1038 06b3 07        		.uleb128 0x7
 1039 06b4 0000 0489 		.long	0x489
 1040 06b8 0000 06C3 		.long	0x6c3
 1041 06bc 08        		.uleb128 0x8
 1042 06bd 0000 0049 		.long	0x49
 1043 06c1 18        		.byte	0x18
 1044 06c2 00        		.byte	0
 1045 06c3 20        		.uleb128 0x20
 1046 06c4 0000 0000 		.long	.LASF106
 1047 06c8 04        		.uleb128 0x4
 1048 06c9 0000 06C3 		.long	0x6c3
 1049 06cd 0F        		.uleb128 0xf
 1050 06ce 0000 06D8 		.long	0x6d8
 1051 06d2 03        		.uleb128 0x3
 1052 06d3 0000 039D 		.long	0x39d
 1053 06d7 00        		.byte	0
 1054 06d8 04        		.uleb128 0x4
 1055 06d9 0000 06CD 		.long	0x6cd
 1056 06dd 04        		.uleb128 0x4
 1057 06de 0000 0185 		.long	0x185
 1058 06e2 0F        		.uleb128 0xf
 1059 06e3 0000 06ED 		.long	0x6ed
 1060 06e7 03        		.uleb128 0x3
 1061 06e8 0000 0085 		.long	0x85
 1062 06ec 00        		.byte	0
 1063 06ed 04        		.uleb128 0x4
 1064 06ee 0000 06F2 		.long	0x6f2
 1065 06f2 04        		.uleb128 0x4
 1066 06f3 0000 06E2 		.long	0x6e2
 1067 06f7 21        		.uleb128 0x21
 1068 06f8 0000 0000 		.long	.LASF107


 1069 06fc 04        		.byte	0x4
 1070 06fd 02FD      		.word	0x2fd
 1071 06ff 17        		.byte	0x17
 1072 0700 0000 039D 		.long	0x39d
 1073 0704 09        		.uleb128 0x9
 1074 0705 0000 0000 		.long	.LASF98
 1075 0709 06        		.byte	0x6
 1076 070a 42        		.byte	0x42
 1077 070b 10        		.byte	0x10
 1078 070c 0000 051E 		.long	0x51e
 1079 0710 22        		.uleb128 0x22
 1080 0711 0000 0717 		.long	0x717
 1081 0715 23        		.uleb128 0x23
 1082 0716 00        		.byte	0
 1083 0717 04        		.uleb128 0x4
 1084 0718 0000 0710 		.long	0x710
 1085 071c 10        		.uleb128 0x10
 1086 071d 0000 0000 		.long	.LASF99
 1087 0721 33        		.byte	0x33
 1088 0722 24        		.uleb128 0x24
 1089 0723 0000 0000 		.long	.LASF108
 1090 0727 07        		.byte	0x7
 1091 0728 32        		.byte	0x32
 1092 0729 06        		.byte	0x6
 1093 072a 0000 0734 		.long	0x734
 1094 072e 03        		.uleb128 0x3
 1095 072f 0000 0717 		.long	0x717
 1096 0733 00        		.byte	0
 1097 0734 10        		.uleb128 0x10
 1098 0735 0000 0000 		.long	.LASF100
 1099 0739 31        		.byte	0x31
 1100 073a 25        		.uleb128 0x25
 1101 073b 0000 0000 		.long	.LASF109
 1102 073f 06        		.byte	0x6
 1103 0740 C6        		.byte	0xc6
 1104 0741 05        		.byte	0x5
 1105 0742 0000 0085 		.long	0x85
 1106 0746 0000 0750 		.long	0x750
 1107 074a 03        		.uleb128 0x3
 1108 074b 0000 0750 		.long	0x750
 1109 074f 00        		.byte	0
 1110 0750 04        		.uleb128 0x4
 1111 0751 0000 0704 		.long	0x704
 1112 0755 26        		.uleb128 0x26
 1113 0756 0000 0000 		.long	.LASF110
 1114 075a 01        		.byte	0x1
 1115 075b 27        		.byte	0x27
 1116 075c 05        		.byte	0x5
 1117 075d 0000 0085 		.long	0x85
 1118 0761 0000 0000 		.long	.LFB6
 1119 0765 0000 002C 		.long	.LFE6-.LFB6
 1120 0769 01        		.uleb128 0x1
 1121 076a 9C        		.byte	0x9c
 1122 076b 0000 0794 		.long	0x794
 1123 076f 0A        		.uleb128 0xa
 1124 0770 0000 0000 		.long	.LVL5
 1125 0774 0000 0734 		.long	0x734


 1126 0778 0A        		.uleb128 0xa
 1127 0779 0000 0000 		.long	.LVL6
 1128 077d 0000 0722 		.long	0x722
 1129 0781 0A        		.uleb128 0xa
 1130 0782 0000 0000 		.long	.LVL7
 1131 0786 0000 0722 		.long	0x722
 1132 078a 0A        		.uleb128 0xa
 1133 078b 0000 0000 		.long	.LVL8
 1134 078f 0000 071C 		.long	0x71c
 1135 0793 00        		.byte	0
 1136 0794 27        		.uleb128 0x27
 1137 0795 0000 0000 		.long	.LASF111
 1138 0799 01        		.byte	0x1
 1139 079a 22        		.byte	0x22
 1140 079b 06        		.byte	0x6
 1141 079c 0000 0000 		.long	.LFB5
 1142 07a0 0000 0002 		.long	.LFE5-.LFB5
 1143 07a4 01        		.uleb128 0x1
 1144 07a5 9C        		.byte	0x9c
 1145 07a6 0000 07BF 		.long	0x7bf
 1146 07aa 28        		.uleb128 0x28
 1147 07ab 0000 0000 		.long	.LASF112
 1148 07af 01        		.byte	0x1
 1149 07b0 22        		.byte	0x22
 1150 07b1 0F        		.byte	0xf
 1151 07b2 0000 0085 		.long	0x85
 1152 07b6 0000 0000 		.long	.LLST0
 1153 07ba 0000 0000 		.long	.LVUS0
 1154 07be 00        		.byte	0
 1155 07bf 11        		.uleb128 0x11
 1156 07c0 0000 0000 		.long	.LASF101
 1157 07c4 15        		.byte	0x15
 1158 07c5 0000 0000 		.long	.LFB4
 1159 07c9 0000 0066 		.long	.LFE4-.LFB4
 1160 07cd 01        		.uleb128 0x1
 1161 07ce 9C        		.byte	0x9c
 1162 07cf 0000 07F1 		.long	0x7f1
 1163 07d3 12        		.uleb128 0x12
 1164 07d4 6900      		.string	"i"
 1165 07d6 16        		.byte	0x16
 1166 07d7 0000 008C 		.long	0x8c
 1167 07db 02        		.uleb128 0x2
 1168 07dc 91        		.byte	0x91
 1169 07dd 78        		.sleb128 -8
 1170 07de 0A        		.uleb128 0xa
 1171 07df 0000 0000 		.long	.LVL2
 1172 07e3 0000 0823 		.long	0x823
 1173 07e7 0A        		.uleb128 0xa
 1174 07e8 0000 0000 		.long	.LVL3
 1175 07ec 0000 073A 		.long	0x73a
 1176 07f0 00        		.byte	0
 1177 07f1 11        		.uleb128 0x11
 1178 07f2 0000 0000 		.long	.LASF102
 1179 07f6 08        		.byte	0x8
 1180 07f7 0000 0000 		.long	.LFB3
 1181 07fb 0000 0066 		.long	.LFE3-.LFB3
 1182 07ff 01        		.uleb128 0x1


 1183 0800 9C        		.byte	0x9c
 1184 0801 0000 0823 		.long	0x823
 1185 0805 12        		.uleb128 0x12
 1186 0806 6900      		.string	"i"
 1187 0808 09        		.byte	0x9
 1188 0809 0000 008C 		.long	0x8c
 1189 080d 02        		.uleb128 0x2
 1190 080e 91        		.byte	0x91
 1191 080f 78        		.sleb128 -8
 1192 0810 0A        		.uleb128 0xa
 1193 0811 0000 0000 		.long	.LVL0
 1194 0815 0000 0823 		.long	0x823
 1195 0819 0A        		.uleb128 0xa
 1196 081a 0000 0000 		.long	.LVL1
 1197 081e 0000 073A 		.long	0x73a
 1198 0822 00        		.byte	0
 1199 0823 29        		.uleb128 0x29
 1200 0824 0000 0000 		.long	.LASF113
 1201 0828 0000 0000 		.long	.LASF114
 1202 082c 08        		.byte	0x8
 1203 082d 00        		.byte	0
 1204 082e 00        		.byte	0
 1205               		.section	.debug_abbrev,"",@progbits
 1206               	.Ldebug_abbrev0:
 1207 0000 01        		.uleb128 0x1
 1208 0001 0D        		.uleb128 0xd
 1209 0002 00        		.byte	0
 1210 0003 03        		.uleb128 0x3
 1211 0004 0E        		.uleb128 0xe
 1212 0005 3A        		.uleb128 0x3a
 1213 0006 21        		.uleb128 0x21
 1214 0007 04        		.sleb128 4
 1215 0008 3B        		.uleb128 0x3b
 1216 0009 05        		.uleb128 0x5
 1217 000a 39        		.uleb128 0x39
 1218 000b 0B        		.uleb128 0xb
 1219 000c 49        		.uleb128 0x49
 1220 000d 13        		.uleb128 0x13
 1221 000e 38        		.uleb128 0x38
 1222 000f 0B        		.uleb128 0xb
 1223 0010 00        		.byte	0
 1224 0011 00        		.byte	0
 1225 0012 02        		.uleb128 0x2
 1226 0013 0D        		.uleb128 0xd
 1227 0014 00        		.byte	0
 1228 0015 03        		.uleb128 0x3
 1229 0016 0E        		.uleb128 0xe
 1230 0017 3A        		.uleb128 0x3a
 1231 0018 0B        		.uleb128 0xb
 1232 0019 3B        		.uleb128 0x3b
 1233 001a 0B        		.uleb128 0xb
 1234 001b 39        		.uleb128 0x39
 1235 001c 0B        		.uleb128 0xb
 1236 001d 49        		.uleb128 0x49
 1237 001e 13        		.uleb128 0x13
 1238 001f 38        		.uleb128 0x38
 1239 0020 0B        		.uleb128 0xb


 1240 0021 00        		.byte	0
 1241 0022 00        		.byte	0
 1242 0023 03        		.uleb128 0x3
 1243 0024 05        		.uleb128 0x5
 1244 0025 00        		.byte	0
 1245 0026 49        		.uleb128 0x49
 1246 0027 13        		.uleb128 0x13
 1247 0028 00        		.byte	0
 1248 0029 00        		.byte	0
 1249 002a 04        		.uleb128 0x4
 1250 002b 0F        		.uleb128 0xf
 1251 002c 00        		.byte	0
 1252 002d 0B        		.uleb128 0xb
 1253 002e 21        		.uleb128 0x21
 1254 002f 04        		.sleb128 4
 1255 0030 49        		.uleb128 0x49
 1256 0031 13        		.uleb128 0x13
 1257 0032 00        		.byte	0
 1258 0033 00        		.byte	0
 1259 0034 05        		.uleb128 0x5
 1260 0035 24        		.uleb128 0x24
 1261 0036 00        		.byte	0
 1262 0037 0B        		.uleb128 0xb
 1263 0038 0B        		.uleb128 0xb
 1264 0039 3E        		.uleb128 0x3e
 1265 003a 0B        		.uleb128 0xb
 1266 003b 03        		.uleb128 0x3
 1267 003c 0E        		.uleb128 0xe
 1268 003d 00        		.byte	0
 1269 003e 00        		.byte	0
 1270 003f 06        		.uleb128 0x6
 1271 0040 0D        		.uleb128 0xd
 1272 0041 00        		.byte	0
 1273 0042 03        		.uleb128 0x3
 1274 0043 08        		.uleb128 0x8
 1275 0044 3A        		.uleb128 0x3a
 1276 0045 21        		.uleb128 0x21
 1277 0046 04        		.sleb128 4
 1278 0047 3B        		.uleb128 0x3b
 1279 0048 0B        		.uleb128 0xb
 1280 0049 39        		.uleb128 0x39
 1281 004a 0B        		.uleb128 0xb
 1282 004b 49        		.uleb128 0x49
 1283 004c 13        		.uleb128 0x13
 1284 004d 38        		.uleb128 0x38
 1285 004e 0B        		.uleb128 0xb
 1286 004f 00        		.byte	0
 1287 0050 00        		.byte	0
 1288 0051 07        		.uleb128 0x7
 1289 0052 01        		.uleb128 0x1
 1290 0053 01        		.byte	0x1
 1291 0054 49        		.uleb128 0x49
 1292 0055 13        		.uleb128 0x13
 1293 0056 01        		.uleb128 0x1
 1294 0057 13        		.uleb128 0x13
 1295 0058 00        		.byte	0
 1296 0059 00        		.byte	0


 1297 005a 08        		.uleb128 0x8
 1298 005b 21        		.uleb128 0x21
 1299 005c 00        		.byte	0
 1300 005d 49        		.uleb128 0x49
 1301 005e 13        		.uleb128 0x13
 1302 005f 2F        		.uleb128 0x2f
 1303 0060 0B        		.uleb128 0xb
 1304 0061 00        		.byte	0
 1305 0062 00        		.byte	0
 1306 0063 09        		.uleb128 0x9
 1307 0064 16        		.uleb128 0x16
 1308 0065 00        		.byte	0
 1309 0066 03        		.uleb128 0x3
 1310 0067 0E        		.uleb128 0xe
 1311 0068 3A        		.uleb128 0x3a
 1312 0069 0B        		.uleb128 0xb
 1313 006a 3B        		.uleb128 0x3b
 1314 006b 0B        		.uleb128 0xb
 1315 006c 39        		.uleb128 0x39
 1316 006d 0B        		.uleb128 0xb
 1317 006e 49        		.uleb128 0x49
 1318 006f 13        		.uleb128 0x13
 1319 0070 00        		.byte	0
 1320 0071 00        		.byte	0
 1321 0072 0A        		.uleb128 0xa
 1322 0073 48        		.uleb128 0x48
 1323 0074 00        		.byte	0
 1324 0075 7D        		.uleb128 0x7d
 1325 0076 01        		.uleb128 0x1
 1326 0077 7F        		.uleb128 0x7f
 1327 0078 13        		.uleb128 0x13
 1328 0079 00        		.byte	0
 1329 007a 00        		.byte	0
 1330 007b 0B        		.uleb128 0xb
 1331 007c 13        		.uleb128 0x13
 1332 007d 01        		.byte	0x1
 1333 007e 03        		.uleb128 0x3
 1334 007f 0E        		.uleb128 0xe
 1335 0080 0B        		.uleb128 0xb
 1336 0081 0B        		.uleb128 0xb
 1337 0082 3A        		.uleb128 0x3a
 1338 0083 21        		.uleb128 0x21
 1339 0084 04        		.sleb128 4
 1340 0085 3B        		.uleb128 0x3b
 1341 0086 0B        		.uleb128 0xb
 1342 0087 39        		.uleb128 0x39
 1343 0088 21        		.uleb128 0x21
 1344 0089 08        		.sleb128 8
 1345 008a 01        		.uleb128 0x1
 1346 008b 13        		.uleb128 0x13
 1347 008c 00        		.byte	0
 1348 008d 00        		.byte	0
 1349 008e 0C        		.uleb128 0xc
 1350 008f 15        		.uleb128 0x15
 1351 0090 01        		.byte	0x1
 1352 0091 27        		.uleb128 0x27
 1353 0092 19        		.uleb128 0x19


 1354 0093 49        		.uleb128 0x49
 1355 0094 13        		.uleb128 0x13
 1356 0095 01        		.uleb128 0x1
 1357 0096 13        		.uleb128 0x13
 1358 0097 00        		.byte	0
 1359 0098 00        		.byte	0
 1360 0099 0D        		.uleb128 0xd
 1361 009a 16        		.uleb128 0x16
 1362 009b 00        		.byte	0
 1363 009c 03        		.uleb128 0x3
 1364 009d 0E        		.uleb128 0xe
 1365 009e 3A        		.uleb128 0x3a
 1366 009f 0B        		.uleb128 0xb
 1367 00a0 3B        		.uleb128 0x3b
 1368 00a1 05        		.uleb128 0x5
 1369 00a2 39        		.uleb128 0x39
 1370 00a3 0B        		.uleb128 0xb
 1371 00a4 49        		.uleb128 0x49
 1372 00a5 13        		.uleb128 0x13
 1373 00a6 00        		.byte	0
 1374 00a7 00        		.byte	0
 1375 00a8 0E        		.uleb128 0xe
 1376 00a9 0D        		.uleb128 0xd
 1377 00aa 00        		.byte	0
 1378 00ab 03        		.uleb128 0x3
 1379 00ac 0E        		.uleb128 0xe
 1380 00ad 3A        		.uleb128 0x3a
 1381 00ae 21        		.uleb128 0x21
 1382 00af 03        		.sleb128 3
 1383 00b0 3B        		.uleb128 0x3b
 1384 00b1 0B        		.uleb128 0xb
 1385 00b2 39        		.uleb128 0x39
 1386 00b3 0B        		.uleb128 0xb
 1387 00b4 49        		.uleb128 0x49
 1388 00b5 13        		.uleb128 0x13
 1389 00b6 00        		.byte	0
 1390 00b7 00        		.byte	0
 1391 00b8 0F        		.uleb128 0xf
 1392 00b9 15        		.uleb128 0x15
 1393 00ba 01        		.byte	0x1
 1394 00bb 27        		.uleb128 0x27
 1395 00bc 19        		.uleb128 0x19
 1396 00bd 01        		.uleb128 0x1
 1397 00be 13        		.uleb128 0x13
 1398 00bf 00        		.byte	0
 1399 00c0 00        		.byte	0
 1400 00c1 10        		.uleb128 0x10
 1401 00c2 2E        		.uleb128 0x2e
 1402 00c3 00        		.byte	0
 1403 00c4 3F        		.uleb128 0x3f
 1404 00c5 19        		.uleb128 0x19
 1405 00c6 03        		.uleb128 0x3
 1406 00c7 0E        		.uleb128 0xe
 1407 00c8 3A        		.uleb128 0x3a
 1408 00c9 21        		.uleb128 0x21
 1409 00ca 07        		.sleb128 7
 1410 00cb 3B        		.uleb128 0x3b


 1411 00cc 0B        		.uleb128 0xb
 1412 00cd 39        		.uleb128 0x39
 1413 00ce 21        		.uleb128 0x21
 1414 00cf 06        		.sleb128 6
 1415 00d0 27        		.uleb128 0x27
 1416 00d1 19        		.uleb128 0x19
 1417 00d2 3C        		.uleb128 0x3c
 1418 00d3 19        		.uleb128 0x19
 1419 00d4 00        		.byte	0
 1420 00d5 00        		.byte	0
 1421 00d6 11        		.uleb128 0x11
 1422 00d7 2E        		.uleb128 0x2e
 1423 00d8 01        		.byte	0x1
 1424 00d9 3F        		.uleb128 0x3f
 1425 00da 19        		.uleb128 0x19
 1426 00db 03        		.uleb128 0x3
 1427 00dc 0E        		.uleb128 0xe
 1428 00dd 3A        		.uleb128 0x3a
 1429 00de 21        		.uleb128 0x21
 1430 00df 01        		.sleb128 1
 1431 00e0 3B        		.uleb128 0x3b
 1432 00e1 0B        		.uleb128 0xb
 1433 00e2 39        		.uleb128 0x39
 1434 00e3 21        		.uleb128 0x21
 1435 00e4 06        		.sleb128 6
 1436 00e5 11        		.uleb128 0x11
 1437 00e6 01        		.uleb128 0x1
 1438 00e7 12        		.uleb128 0x12
 1439 00e8 06        		.uleb128 0x6
 1440 00e9 40        		.uleb128 0x40
 1441 00ea 18        		.uleb128 0x18
 1442 00eb 7A        		.uleb128 0x7a
 1443 00ec 19        		.uleb128 0x19
 1444 00ed 01        		.uleb128 0x1
 1445 00ee 13        		.uleb128 0x13
 1446 00ef 00        		.byte	0
 1447 00f0 00        		.byte	0
 1448 00f1 12        		.uleb128 0x12
 1449 00f2 34        		.uleb128 0x34
 1450 00f3 00        		.byte	0
 1451 00f4 03        		.uleb128 0x3
 1452 00f5 08        		.uleb128 0x8
 1453 00f6 3A        		.uleb128 0x3a
 1454 00f7 21        		.uleb128 0x21
 1455 00f8 01        		.sleb128 1
 1456 00f9 3B        		.uleb128 0x3b
 1457 00fa 0B        		.uleb128 0xb
 1458 00fb 39        		.uleb128 0x39
 1459 00fc 21        		.uleb128 0x21
 1460 00fd 12        		.sleb128 18
 1461 00fe 49        		.uleb128 0x49
 1462 00ff 13        		.uleb128 0x13
 1463 0100 02        		.uleb128 0x2
 1464 0101 18        		.uleb128 0x18
 1465 0102 00        		.byte	0
 1466 0103 00        		.byte	0
 1467 0104 13        		.uleb128 0x13


 1468 0105 11        		.uleb128 0x11
 1469 0106 01        		.byte	0x1
 1470 0107 25        		.uleb128 0x25
 1471 0108 0E        		.uleb128 0xe
 1472 0109 13        		.uleb128 0x13
 1473 010a 0B        		.uleb128 0xb
 1474 010b 03        		.uleb128 0x3
 1475 010c 0E        		.uleb128 0xe
 1476 010d 1B        		.uleb128 0x1b
 1477 010e 0E        		.uleb128 0xe
 1478 010f 55        		.uleb128 0x55
 1479 0110 17        		.uleb128 0x17
 1480 0111 11        		.uleb128 0x11
 1481 0112 01        		.uleb128 0x1
 1482 0113 10        		.uleb128 0x10
 1483 0114 17        		.uleb128 0x17
 1484 0115 00        		.byte	0
 1485 0116 00        		.byte	0
 1486 0117 14        		.uleb128 0x14
 1487 0118 24        		.uleb128 0x24
 1488 0119 00        		.byte	0
 1489 011a 0B        		.uleb128 0xb
 1490 011b 0B        		.uleb128 0xb
 1491 011c 3E        		.uleb128 0x3e
 1492 011d 0B        		.uleb128 0xb
 1493 011e 03        		.uleb128 0x3
 1494 011f 08        		.uleb128 0x8
 1495 0120 00        		.byte	0
 1496 0121 00        		.byte	0
 1497 0122 15        		.uleb128 0x15
 1498 0123 35        		.uleb128 0x35
 1499 0124 00        		.byte	0
 1500 0125 49        		.uleb128 0x49
 1501 0126 13        		.uleb128 0x13
 1502 0127 00        		.byte	0
 1503 0128 00        		.byte	0
 1504 0129 16        		.uleb128 0x16
 1505 012a 17        		.uleb128 0x17
 1506 012b 01        		.byte	0x1
 1507 012c 0B        		.uleb128 0xb
 1508 012d 0B        		.uleb128 0xb
 1509 012e 3A        		.uleb128 0x3a
 1510 012f 0B        		.uleb128 0xb
 1511 0130 3B        		.uleb128 0x3b
 1512 0131 0B        		.uleb128 0xb
 1513 0132 39        		.uleb128 0x39
 1514 0133 0B        		.uleb128 0xb
 1515 0134 01        		.uleb128 0x1
 1516 0135 13        		.uleb128 0x13
 1517 0136 00        		.byte	0
 1518 0137 00        		.byte	0
 1519 0138 17        		.uleb128 0x17
 1520 0139 13        		.uleb128 0x13
 1521 013a 01        		.byte	0x1
 1522 013b 0B        		.uleb128 0xb
 1523 013c 0B        		.uleb128 0xb
 1524 013d 3A        		.uleb128 0x3a


 1525 013e 0B        		.uleb128 0xb
 1526 013f 3B        		.uleb128 0x3b
 1527 0140 0B        		.uleb128 0xb
 1528 0141 39        		.uleb128 0x39
 1529 0142 0B        		.uleb128 0xb
 1530 0143 01        		.uleb128 0x1
 1531 0144 13        		.uleb128 0x13
 1532 0145 00        		.byte	0
 1533 0146 00        		.byte	0
 1534 0147 18        		.uleb128 0x18
 1535 0148 0F        		.uleb128 0xf
 1536 0149 00        		.byte	0
 1537 014a 0B        		.uleb128 0xb
 1538 014b 0B        		.uleb128 0xb
 1539 014c 00        		.byte	0
 1540 014d 00        		.byte	0
 1541 014e 19        		.uleb128 0x19
 1542 014f 13        		.uleb128 0x13
 1543 0150 01        		.byte	0x1
 1544 0151 03        		.uleb128 0x3
 1545 0152 0E        		.uleb128 0xe
 1546 0153 0B        		.uleb128 0xb
 1547 0154 05        		.uleb128 0x5
 1548 0155 3A        		.uleb128 0x3a
 1549 0156 0B        		.uleb128 0xb
 1550 0157 3B        		.uleb128 0x3b
 1551 0158 05        		.uleb128 0x5
 1552 0159 39        		.uleb128 0x39
 1553 015a 0B        		.uleb128 0xb
 1554 015b 01        		.uleb128 0x1
 1555 015c 13        		.uleb128 0x13
 1556 015d 00        		.byte	0
 1557 015e 00        		.byte	0
 1558 015f 1A        		.uleb128 0x1a
 1559 0160 0D        		.uleb128 0xd
 1560 0161 00        		.byte	0
 1561 0162 03        		.uleb128 0x3
 1562 0163 0E        		.uleb128 0xe
 1563 0164 3A        		.uleb128 0x3a
 1564 0165 0B        		.uleb128 0xb
 1565 0166 3B        		.uleb128 0x3b
 1566 0167 05        		.uleb128 0x5
 1567 0168 39        		.uleb128 0x39
 1568 0169 0B        		.uleb128 0xb
 1569 016a 49        		.uleb128 0x49
 1570 016b 13        		.uleb128 0x13
 1571 016c 38        		.uleb128 0x38
 1572 016d 05        		.uleb128 0x5
 1573 016e 00        		.byte	0
 1574 016f 00        		.byte	0
 1575 0170 1B        		.uleb128 0x1b
 1576 0171 26        		.uleb128 0x26
 1577 0172 00        		.byte	0
 1578 0173 49        		.uleb128 0x49
 1579 0174 13        		.uleb128 0x13
 1580 0175 00        		.byte	0
 1581 0176 00        		.byte	0


 1582 0177 1C        		.uleb128 0x1c
 1583 0178 13        		.uleb128 0x13
 1584 0179 01        		.byte	0x1
 1585 017a 03        		.uleb128 0x3
 1586 017b 0E        		.uleb128 0xe
 1587 017c 0B        		.uleb128 0xb
 1588 017d 0B        		.uleb128 0xb
 1589 017e 3A        		.uleb128 0x3a
 1590 017f 0B        		.uleb128 0xb
 1591 0180 3B        		.uleb128 0x3b
 1592 0181 05        		.uleb128 0x5
 1593 0182 39        		.uleb128 0x39
 1594 0183 0B        		.uleb128 0xb
 1595 0184 01        		.uleb128 0x1
 1596 0185 13        		.uleb128 0x13
 1597 0186 00        		.byte	0
 1598 0187 00        		.byte	0
 1599 0188 1D        		.uleb128 0x1d
 1600 0189 13        		.uleb128 0x13
 1601 018a 01        		.byte	0x1
 1602 018b 0B        		.uleb128 0xb
 1603 018c 0B        		.uleb128 0xb
 1604 018d 3A        		.uleb128 0x3a
 1605 018e 0B        		.uleb128 0xb
 1606 018f 3B        		.uleb128 0x3b
 1607 0190 05        		.uleb128 0x5
 1608 0191 39        		.uleb128 0x39
 1609 0192 0B        		.uleb128 0xb
 1610 0193 01        		.uleb128 0x1
 1611 0194 13        		.uleb128 0x13
 1612 0195 00        		.byte	0
 1613 0196 00        		.byte	0
 1614 0197 1E        		.uleb128 0x1e
 1615 0198 17        		.uleb128 0x17
 1616 0199 01        		.byte	0x1
 1617 019a 0B        		.uleb128 0xb
 1618 019b 0B        		.uleb128 0xb
 1619 019c 3A        		.uleb128 0x3a
 1620 019d 0B        		.uleb128 0xb
 1621 019e 3B        		.uleb128 0x3b
 1622 019f 05        		.uleb128 0x5
 1623 01a0 39        		.uleb128 0x39
 1624 01a1 0B        		.uleb128 0xb
 1625 01a2 01        		.uleb128 0x1
 1626 01a3 13        		.uleb128 0x13
 1627 01a4 00        		.byte	0
 1628 01a5 00        		.byte	0
 1629 01a6 1F        		.uleb128 0x1f
 1630 01a7 0D        		.uleb128 0xd
 1631 01a8 00        		.byte	0
 1632 01a9 03        		.uleb128 0x3
 1633 01aa 0E        		.uleb128 0xe
 1634 01ab 3A        		.uleb128 0x3a
 1635 01ac 0B        		.uleb128 0xb
 1636 01ad 3B        		.uleb128 0x3b
 1637 01ae 05        		.uleb128 0x5
 1638 01af 39        		.uleb128 0x39


 1639 01b0 0B        		.uleb128 0xb
 1640 01b1 49        		.uleb128 0x49
 1641 01b2 13        		.uleb128 0x13
 1642 01b3 00        		.byte	0
 1643 01b4 00        		.byte	0
 1644 01b5 20        		.uleb128 0x20
 1645 01b6 13        		.uleb128 0x13
 1646 01b7 00        		.byte	0
 1647 01b8 03        		.uleb128 0x3
 1648 01b9 0E        		.uleb128 0xe
 1649 01ba 3C        		.uleb128 0x3c
 1650 01bb 19        		.uleb128 0x19
 1651 01bc 00        		.byte	0
 1652 01bd 00        		.byte	0
 1653 01be 21        		.uleb128 0x21
 1654 01bf 34        		.uleb128 0x34
 1655 01c0 00        		.byte	0
 1656 01c1 03        		.uleb128 0x3
 1657 01c2 0E        		.uleb128 0xe
 1658 01c3 3A        		.uleb128 0x3a
 1659 01c4 0B        		.uleb128 0xb
 1660 01c5 3B        		.uleb128 0x3b
 1661 01c6 05        		.uleb128 0x5
 1662 01c7 39        		.uleb128 0x39
 1663 01c8 0B        		.uleb128 0xb
 1664 01c9 49        		.uleb128 0x49
 1665 01ca 13        		.uleb128 0x13
 1666 01cb 3F        		.uleb128 0x3f
 1667 01cc 19        		.uleb128 0x19
 1668 01cd 3C        		.uleb128 0x3c
 1669 01ce 19        		.uleb128 0x19
 1670 01cf 00        		.byte	0
 1671 01d0 00        		.byte	0
 1672 01d1 22        		.uleb128 0x22
 1673 01d2 15        		.uleb128 0x15
 1674 01d3 01        		.byte	0x1
 1675 01d4 01        		.uleb128 0x1
 1676 01d5 13        		.uleb128 0x13
 1677 01d6 00        		.byte	0
 1678 01d7 00        		.byte	0
 1679 01d8 23        		.uleb128 0x23
 1680 01d9 18        		.uleb128 0x18
 1681 01da 00        		.byte	0
 1682 01db 00        		.byte	0
 1683 01dc 00        		.byte	0
 1684 01dd 24        		.uleb128 0x24
 1685 01de 2E        		.uleb128 0x2e
 1686 01df 01        		.byte	0x1
 1687 01e0 3F        		.uleb128 0x3f
 1688 01e1 19        		.uleb128 0x19
 1689 01e2 03        		.uleb128 0x3
 1690 01e3 0E        		.uleb128 0xe
 1691 01e4 3A        		.uleb128 0x3a
 1692 01e5 0B        		.uleb128 0xb
 1693 01e6 3B        		.uleb128 0x3b
 1694 01e7 0B        		.uleb128 0xb
 1695 01e8 39        		.uleb128 0x39


 1696 01e9 0B        		.uleb128 0xb
 1697 01ea 27        		.uleb128 0x27
 1698 01eb 19        		.uleb128 0x19
 1699 01ec 3C        		.uleb128 0x3c
 1700 01ed 19        		.uleb128 0x19
 1701 01ee 01        		.uleb128 0x1
 1702 01ef 13        		.uleb128 0x13
 1703 01f0 00        		.byte	0
 1704 01f1 00        		.byte	0
 1705 01f2 25        		.uleb128 0x25
 1706 01f3 2E        		.uleb128 0x2e
 1707 01f4 01        		.byte	0x1
 1708 01f5 3F        		.uleb128 0x3f
 1709 01f6 19        		.uleb128 0x19
 1710 01f7 03        		.uleb128 0x3
 1711 01f8 0E        		.uleb128 0xe
 1712 01f9 3A        		.uleb128 0x3a
 1713 01fa 0B        		.uleb128 0xb
 1714 01fb 3B        		.uleb128 0x3b
 1715 01fc 0B        		.uleb128 0xb
 1716 01fd 39        		.uleb128 0x39
 1717 01fe 0B        		.uleb128 0xb
 1718 01ff 27        		.uleb128 0x27
 1719 0200 19        		.uleb128 0x19
 1720 0201 49        		.uleb128 0x49
 1721 0202 13        		.uleb128 0x13
 1722 0203 3C        		.uleb128 0x3c
 1723 0204 19        		.uleb128 0x19
 1724 0205 01        		.uleb128 0x1
 1725 0206 13        		.uleb128 0x13
 1726 0207 00        		.byte	0
 1727 0208 00        		.byte	0
 1728 0209 26        		.uleb128 0x26
 1729 020a 2E        		.uleb128 0x2e
 1730 020b 01        		.byte	0x1
 1731 020c 3F        		.uleb128 0x3f
 1732 020d 19        		.uleb128 0x19
 1733 020e 03        		.uleb128 0x3
 1734 020f 0E        		.uleb128 0xe
 1735 0210 3A        		.uleb128 0x3a
 1736 0211 0B        		.uleb128 0xb
 1737 0212 3B        		.uleb128 0x3b
 1738 0213 0B        		.uleb128 0xb
 1739 0214 39        		.uleb128 0x39
 1740 0215 0B        		.uleb128 0xb
 1741 0216 49        		.uleb128 0x49
 1742 0217 13        		.uleb128 0x13
 1743 0218 11        		.uleb128 0x11
 1744 0219 01        		.uleb128 0x1
 1745 021a 12        		.uleb128 0x12
 1746 021b 06        		.uleb128 0x6
 1747 021c 40        		.uleb128 0x40
 1748 021d 18        		.uleb128 0x18
 1749 021e 7A        		.uleb128 0x7a
 1750 021f 19        		.uleb128 0x19
 1751 0220 01        		.uleb128 0x1
 1752 0221 13        		.uleb128 0x13


 1753 0222 00        		.byte	0
 1754 0223 00        		.byte	0
 1755 0224 27        		.uleb128 0x27
 1756 0225 2E        		.uleb128 0x2e
 1757 0226 01        		.byte	0x1
 1758 0227 3F        		.uleb128 0x3f
 1759 0228 19        		.uleb128 0x19
 1760 0229 03        		.uleb128 0x3
 1761 022a 0E        		.uleb128 0xe
 1762 022b 3A        		.uleb128 0x3a
 1763 022c 0B        		.uleb128 0xb
 1764 022d 3B        		.uleb128 0x3b
 1765 022e 0B        		.uleb128 0xb
 1766 022f 39        		.uleb128 0x39
 1767 0230 0B        		.uleb128 0xb
 1768 0231 27        		.uleb128 0x27
 1769 0232 19        		.uleb128 0x19
 1770 0233 8701      		.uleb128 0x87
 1771 0235 19        		.uleb128 0x19
 1772 0236 11        		.uleb128 0x11
 1773 0237 01        		.uleb128 0x1
 1774 0238 12        		.uleb128 0x12
 1775 0239 06        		.uleb128 0x6
 1776 023a 40        		.uleb128 0x40
 1777 023b 18        		.uleb128 0x18
 1778 023c 7A        		.uleb128 0x7a
 1779 023d 19        		.uleb128 0x19
 1780 023e 01        		.uleb128 0x1
 1781 023f 13        		.uleb128 0x13
 1782 0240 00        		.byte	0
 1783 0241 00        		.byte	0
 1784 0242 28        		.uleb128 0x28
 1785 0243 05        		.uleb128 0x5
 1786 0244 00        		.byte	0
 1787 0245 03        		.uleb128 0x3
 1788 0246 0E        		.uleb128 0xe
 1789 0247 3A        		.uleb128 0x3a
 1790 0248 0B        		.uleb128 0xb
 1791 0249 3B        		.uleb128 0x3b
 1792 024a 0B        		.uleb128 0xb
 1793 024b 39        		.uleb128 0x39
 1794 024c 0B        		.uleb128 0xb
 1795 024d 49        		.uleb128 0x49
 1796 024e 13        		.uleb128 0x13
 1797 024f 02        		.uleb128 0x2
 1798 0250 17        		.uleb128 0x17
 1799 0251 B742      		.uleb128 0x2137
 1800 0253 17        		.uleb128 0x17
 1801 0254 00        		.byte	0
 1802 0255 00        		.byte	0
 1803 0256 29        		.uleb128 0x29
 1804 0257 2E        		.uleb128 0x2e
 1805 0258 00        		.byte	0
 1806 0259 3F        		.uleb128 0x3f
 1807 025a 19        		.uleb128 0x19
 1808 025b 3C        		.uleb128 0x3c
 1809 025c 19        		.uleb128 0x19


 1810 025d 6E        		.uleb128 0x6e
 1811 025e 0E        		.uleb128 0xe
 1812 025f 03        		.uleb128 0x3
 1813 0260 0E        		.uleb128 0xe
 1814 0261 3A        		.uleb128 0x3a
 1815 0262 0B        		.uleb128 0xb
 1816 0263 3B        		.uleb128 0x3b
 1817 0264 0B        		.uleb128 0xb
 1818 0265 00        		.byte	0
 1819 0266 00        		.byte	0
 1820 0267 00        		.byte	0
 1821               		.section	.debug_loclists,"",@progbits
 1822 0000 0000 0014 		.long	.Ldebug_loc3-.Ldebug_loc2
 1823               	.Ldebug_loc2:
 1824 0004 0005      		.word	0x5
 1825 0006 04        		.byte	0x4
 1826 0007 00        		.byte	0
 1827 0008 0000 0000 		.long	0
 1828               	.Ldebug_loc0:
 1829               	.LVUS0:
 1830 000c 01        		.uleb128 .LVU29
 1831 000d 00        		.uleb128 0
 1832               	.LLST0:
 1833 000e 08        		.byte	0x8
 1834 000f 0000 0000 		.long	.LVL4
 1835 0013 02        		.uleb128 .LFE5-.LVL4
 1836 0014 02        		.uleb128 0x2
 1837 0015 91        		.byte	0x91
 1838 0016 00        		.sleb128 0
 1839 0017 00        		.byte	0
 1840               	.Ldebug_loc3:
 1841               		.section	.debug_aranges,"",@progbits
 1842 0000 0000 0024 		.long	0x24
 1843 0004 0002      		.word	0x2
 1844 0006 0000 0000 		.long	.Ldebug_info0
 1845 000a 04        		.byte	0x4
 1846 000b 00        		.byte	0
 1847 000c 0000      		.word	0
 1848 000e 0000      		.word	0
 1849 0010 0000 0000 		.long	.Ltext0
 1850 0014 0000 00CE 		.long	.Letext0-.Ltext0
 1851 0018 0000 0000 		.long	.LFB6
 1852 001c 0000 002C 		.long	.LFE6-.LFB6
 1853 0020 0000 0000 		.long	0
 1854 0024 0000 0000 		.long	0
 1855               		.section	.debug_rnglists,"",@progbits
 1856               	.Ldebug_ranges0:
 1857 0000 0000 0016 		.long	.Ldebug_ranges3-.Ldebug_ranges2
 1858               	.Ldebug_ranges2:
 1859 0004 0005      		.word	0x5
 1860 0006 04        		.byte	0x4
 1861 0007 00        		.byte	0
 1862 0008 0000 0000 		.long	0
 1863               	.LLRL1:
 1864 000c 07        		.byte	0x7
 1865 000d 0000 0000 		.long	.Ltext0
 1866 0011 CE01      		.uleb128 .Letext0-.Ltext0


 1867 0013 07        		.byte	0x7
 1868 0014 0000 0000 		.long	.LFB6
 1869 0018 2C        		.uleb128 .LFE6-.LFB6
 1870 0019 00        		.byte	0
 1871               	.Ldebug_ranges3:
 1872               		.section	.debug_line,"",@progbits
 1873               	.Ldebug_line0:
 1874 0000 0000 0189 		.section	.debug_str,"MS",@progbits,1
 1874      0003 0000 
 1874      00D6 0201 
 1874      FB0E 0D00 
 1874      0101 0101 
 1875               	.LASF39:
 1876 0000 5F73 697A 		.string	"_size"
 1876      6500 
 1877               	.LASF76:
 1878 0006 5F72 616E 		.string	"_rand48"
 1878      6434 3800 
 1879               	.LASF63:
 1880 000e 5F65 6D65 		.string	"_emergency"
 1880      7267 656E 
 1880      6379 00
 1881               	.LASF53:
 1882 0019 5F64 6174 		.string	"_data"
 1882      6100 
 1883               	.LASF95:
 1884 001f 5F77 6372 		.string	"_wcrtomb_state"
 1884      746F 6D62 
 1884      5F73 7461 
 1884      7465 00
 1885               	.LASF108:
 1886 002e 7365 745F 		.string	"set_task"
 1886      7461 736B 
 1886      00
 1887               	.LASF96:
 1888 0037 5F77 6373 		.string	"_wcsrtombs_state"
 1888      7274 6F6D 
 1888      6273 5F73 
 1888      7461 7465 
 1888      00
 1889               	.LASF7:
 1890 0048 6C6F 6E67 		.string	"long long unsigned int"
 1890      206C 6F6E 
 1890      6720 756E 
 1890      7369 676E 
 1890      6564 2069 
 1891               	.LASF100:
 1892 005f 696E 6974 		.string	"init_kernel"
 1892      5F6B 6572 
 1892      6E65 6C00 
 1893               	.LASF43:
 1894 006b 5F6C 6266 		.string	"_lbfsize"
 1894      7369 7A65 
 1894      00
 1895               	.LASF106:
 1896 0074 5F5F 6C6F 		.string	"__locale_t"
 1896      6361 6C65 


 1896      5F74 00
 1897               	.LASF93:
 1898 007f 5F6D 6272 		.string	"_mbrtowc_state"
 1898      746F 7763 
 1898      5F73 7461 
 1898      7465 00
 1899               	.LASF88:
 1900 008e 5F77 6374 		.string	"_wctomb_state"
 1900      6F6D 625F 
 1900      7374 6174 
 1900      6500 
 1901               	.LASF28:
 1902 009c 5F5F 746D 		.string	"__tm_sec"
 1902      5F73 6563 
 1902      00
 1903               	.LASF6:
 1904 00a5 6C6F 6E67 		.string	"long long int"
 1904      206C 6F6E 
 1904      6720 696E 
 1904      7400 
 1905               	.LASF0:
 1906 00b3 7369 676E 		.string	"signed char"
 1906      6564 2063 
 1906      6861 7200 
 1907               	.LASF49:
 1908 00bf 5F75 6275 		.string	"_ubuf"
 1908      6600 
 1909               	.LASF38:
 1910 00c5 5F62 6173 		.string	"_base"
 1910      6500 
 1911               	.LASF30:
 1912 00cb 5F5F 746D 		.string	"__tm_hour"
 1912      5F68 6F75 
 1912      7200 
 1913               	.LASF44:
 1914 00d5 5F63 6F6F 		.string	"_cookie"
 1914      6B69 6500 
 1915               	.LASF4:
 1916 00dd 6C6F 6E67 		.string	"long int"
 1916      2069 6E74 
 1916      00
 1917               	.LASF41:
 1918 00e6 5F66 6C61 		.string	"_flags"
 1918      6773 00
 1919               	.LASF98:
 1920 00ed 4649 4C45 		.string	"FILE"
 1920      00
 1921               	.LASF59:
 1922 00f2 5F73 7464 		.string	"_stdin"
 1922      696E 00
 1923               	.LASF51:
 1924 00f9 5F62 6C6B 		.string	"_blksize"
 1924      7369 7A65 
 1924      00
 1925               	.LASF113:
 1926 0102 7075 7463 		.string	"putchar"
 1926      6861 7200 


 1927               	.LASF71:
 1928 010a 5F63 7674 		.string	"_cvtbuf"
 1928      6275 6600 
 1929               	.LASF52:
 1930 0112 5F6F 6666 		.string	"_offset"
 1930      7365 7400 
 1931               	.LASF94:
 1932 011a 5F6D 6273 		.string	"_mbsrtowcs_state"
 1932      7274 6F77 
 1932      6373 5F73 
 1932      7461 7465 
 1932      00
 1933               	.LASF92:
 1934 012b 5F6D 6272 		.string	"_mbrlen_state"
 1934      6C65 6E5F 
 1934      7374 6174 
 1934      6500 
 1935               	.LASF24:
 1936 0139 5F73 6967 		.string	"_sign"
 1936      6E00 
 1937               	.LASF21:
 1938 013f 5F66 6C6F 		.string	"_flock_t"
 1938      636B 5F74 
 1938      00
 1939               	.LASF61:
 1940 0148 5F73 7464 		.string	"_stderr"
 1940      6572 7200 
 1941               	.LASF26:
 1942 0150 5F42 6967 		.string	"_Bigint"
 1942      696E 7400 
 1943               	.LASF83:
 1944 0158 5F67 616D 		.string	"_gamma_signgam"
 1944      6D61 5F73 
 1944      6967 6E67 
 1944      616D 00
 1945               	.LASF45:
 1946 0167 5F72 6561 		.string	"_read"
 1946      6400 
 1947               	.LASF67:
 1948 016d 5F72 6573 		.string	"_result_k"
 1948      756C 745F 
 1948      6B00 
 1949               	.LASF27:
 1950 0177 5F5F 746D 		.string	"__tm"
 1950      00
 1951               	.LASF9:
 1952 017c 756E 7369 		.string	"unsigned int"
 1952      676E 6564 
 1952      2069 6E74 
 1952      00
 1953               	.LASF15:
 1954 0189 5F5F 7763 		.string	"__wchb"
 1954      6862 00
 1955               	.LASF60:
 1956 0190 5F73 7464 		.string	"_stdout"
 1956      6F75 7400 
 1957               	.LASF104:


 1958 0198 7465 7374 		.string	"test2.c"
 1958      322E 6300 
 1959               	.LASF70:
 1960 01a0 5F63 7674 		.string	"_cvtlen"
 1960      6C65 6E00 
 1961               	.LASF5:
 1962 01a8 6C6F 6E67 		.string	"long unsigned int"
 1962      2075 6E73 
 1962      6967 6E65 
 1962      6420 696E 
 1962      7400 
 1963               	.LASF42:
 1964 01ba 5F66 696C 		.string	"_file"
 1964      6500 
 1965               	.LASF102:
 1966 01c0 7461 736B 		.string	"task1"
 1966      3100 
 1967               	.LASF101:
 1968 01c6 7461 736B 		.string	"task2"
 1968      3200 
 1969               	.LASF114:
 1970 01cc 5F5F 6275 		.string	"__builtin_putchar"
 1970      696C 7469 
 1970      6E5F 7075 
 1970      7463 6861 
 1970      7200 
 1971               	.LASF3:
 1972 01de 7368 6F72 		.string	"short unsigned int"
 1972      7420 756E 
 1972      7369 676E 
 1972      6564 2069 
 1972      6E74 00
 1973               	.LASF90:
 1974 01f1 5F73 6967 		.string	"_signal_buf"
 1974      6E61 6C5F 
 1974      6275 6600 
 1975               	.LASF81:
 1976 01fd 5F61 7363 		.string	"_asctime_buf"
 1976      7469 6D65 
 1976      5F62 7566 
 1976      00
 1977               	.LASF66:
 1978 020a 5F72 6573 		.string	"_result"
 1978      756C 7400 
 1979               	.LASF14:
 1980 0212 5F5F 7763 		.string	"__wch"
 1980      6800 
 1981               	.LASF10:
 1982 0218 7769 6E74 		.string	"wint_t"
 1982      5F74 00
 1983               	.LASF54:
 1984 021f 5F6C 6F63 		.string	"_lock"
 1984      6B00 
 1985               	.LASF56:
 1986 0225 5F66 6C61 		.string	"_flags2"
 1986      6773 3200 
 1987               	.LASF46:


 1988 022d 5F77 7269 		.string	"_write"
 1988      7465 00
 1989               	.LASF33:
 1990 0234 5F5F 746D 		.string	"__tm_year"
 1990      5F79 6561 
 1990      7200 
 1991               	.LASF20:
 1992 023e 5F4C 4F43 		.string	"_LOCK_RECURSIVE_T"
 1992      4B5F 5245 
 1992      4355 5253 
 1992      4956 455F 
 1992      5400 
 1993               	.LASF32:
 1994 0250 5F5F 746D 		.string	"__tm_mon"
 1994      5F6D 6F6E 
 1994      00
 1995               	.LASF11:
 1996 0259 5F6F 6666 		.string	"_off_t"
 1996      5F74 00
 1997               	.LASF69:
 1998 0260 5F66 7265 		.string	"_freelist"
 1998      656C 6973 
 1998      7400 
 1999               	.LASF109:
 2000 026a 6666 6C75 		.string	"fflush"
 2000      7368 00
 2001               	.LASF103:
 2002 0271 474E 5520 		.string	"GNU C17 11.4.0 -mcpu=68000 -msoft-float -g -O2 -fomit-frame-pointer"
 2002      4331 3720 
 2002      3131 2E34 
 2002      2E30 202D 
 2002      6D63 7075 
 2003               	.LASF99:
 2004 02b5 6265 6769 		.string	"begin_sch"
 2004      6E5F 7363 
 2004      6800 
 2005               	.LASF1:
 2006 02bf 756E 7369 		.string	"unsigned char"
 2006      676E 6564 
 2006      2063 6861 
 2006      7200 
 2007               	.LASF72:
 2008 02cd 5F6E 6577 		.string	"_new"
 2008      00
 2009               	.LASF97:
 2010 02d2 5F68 5F65 		.string	"_h_errno"
 2010      7272 6E6F 
 2010      00
 2011               	.LASF2:
 2012 02db 7368 6F72 		.string	"short int"
 2012      7420 696E 
 2012      7400 
 2013               	.LASF35:
 2014 02e5 5F5F 746D 		.string	"__tm_yday"
 2014      5F79 6461 
 2014      7900 
 2015               	.LASF37:


 2016 02ef 5F5F 7362 		.string	"__sbuf"
 2016      7566 00
 2017               	.LASF75:
 2018 02f6 5F5F 4649 		.string	"__FILE"
 2018      4C45 00
 2019               	.LASF18:
 2020 02fd 5F6D 6273 		.string	"_mbstate_t"
 2020      7461 7465 
 2020      5F74 00
 2021               	.LASF40:
 2022 0308 5F5F 7346 		.string	"__sFILE"
 2022      494C 4500 
 2023               	.LASF55:
 2024 0310 5F6D 6273 		.string	"_mbstate"
 2024      7461 7465 
 2024      00
 2025               	.LASF84:
 2026 0319 5F72 616E 		.string	"_rand_next"
 2026      645F 6E65 
 2026      7874 00
 2027               	.LASF86:
 2028 0324 5F6D 626C 		.string	"_mblen_state"
 2028      656E 5F73 
 2028      7461 7465 
 2028      00
 2029               	.LASF62:
 2030 0331 5F69 6E63 		.string	"_inc"
 2030      00
 2031               	.LASF111:
 2032 0336 6578 6974 		.string	"exit"
 2032      00
 2033               	.LASF64:
 2034 033b 5F6C 6F63 		.string	"_locale"
 2034      616C 6500 
 2035               	.LASF65:
 2036 0343 5F5F 636C 		.string	"__cleanup"
 2036      6561 6E75 
 2036      7000 
 2037               	.LASF23:
 2038 034d 5F6D 6178 		.string	"_maxwds"
 2038      7764 7300 
 2039               	.LASF57:
 2040 0355 5F72 6565 		.string	"_reent"
 2040      6E74 00
 2041               	.LASF77:
 2042 035c 5F73 6565 		.string	"_seed"
 2042      6400 
 2043               	.LASF16:
 2044 0362 5F5F 636F 		.string	"__count"
 2044      756E 7400 
 2045               	.LASF17:
 2046 036a 5F5F 7661 		.string	"__value"
 2046      6C75 6500 
 2047               	.LASF47:
 2048 0372 5F73 6565 		.string	"_seek"
 2048      6B00 
 2049               	.LASF107:


 2050 0378 5F69 6D70 		.string	"_impure_ptr"
 2050      7572 655F 
 2050      7074 7200 
 2051               	.LASF12:
 2052 0384 5F66 706F 		.string	"_fpos_t"
 2052      735F 7400 
 2053               	.LASF8:
 2054 038c 6C6F 6E67 		.string	"long double"
 2054      2064 6F75 
 2054      626C 6500 
 2055               	.LASF58:
 2056 0398 5F65 7272 		.string	"_errno"
 2056      6E6F 00
 2057               	.LASF74:
 2058 039f 6368 6172 		.string	"char"
 2058      00
 2059               	.LASF29:
 2060 03a4 5F5F 746D 		.string	"__tm_min"
 2060      5F6D 696E 
 2060      00
 2061               	.LASF105:
 2062 03ad 2F68 6F6D 		.string	"/home/students/9698848454/soft2/section1/mtk"
 2062      652F 7374 
 2062      7564 656E 
 2062      7473 2F39 
 2062      3639 3838 
 2063               	.LASF78:
 2064 03da 5F6D 756C 		.string	"_mult"
 2064      7400 
 2065               	.LASF22:
 2066 03e0 5F6E 6578 		.string	"_next"
 2066      7400 
 2067               	.LASF80:
 2068 03e6 5F73 7472 		.string	"_strtok_last"
 2068      746F 6B5F 
 2068      6C61 7374 
 2068      00
 2069               	.LASF79:
 2070 03f3 5F61 6464 		.string	"_add"
 2070      00
 2071               	.LASF19:
 2072 03f8 5F5F 554C 		.string	"__ULong"
 2072      6F6E 6700 
 2073               	.LASF91:
 2074 0400 5F67 6574 		.string	"_getdate_err"
 2074      6461 7465 
 2074      5F65 7272 
 2074      00
 2075               	.LASF112:
 2076 040d 7374 6174 		.string	"status"
 2076      7573 00
 2077               	.LASF25:
 2078 0414 5F77 6473 		.string	"_wds"
 2078      00
 2079               	.LASF34:
 2080 0419 5F5F 746D 		.string	"__tm_wday"
 2080      5F77 6461 


 2080      7900 
 2081               	.LASF13:
 2082 0423 5F73 7369 		.string	"_ssize_t"
 2082      7A65 5F74 
 2082      00
 2083               	.LASF89:
 2084 042c 5F6C 3634 		.string	"_l64a_buf"
 2084      615F 6275 
 2084      6600 
 2085               	.LASF73:
 2086 0436 5F73 6967 		.string	"_sig_func"
 2086      5F66 756E 
 2086      6300 
 2087               	.LASF50:
 2088 0440 5F6E 6275 		.string	"_nbuf"
 2088      6600 
 2089               	.LASF36:
 2090 0446 5F5F 746D 		.string	"__tm_isdst"
 2090      5F69 7364 
 2090      7374 00
 2091               	.LASF82:
 2092 0451 5F6C 6F63 		.string	"_localtime_buf"
 2092      616C 7469 
 2092      6D65 5F62 
 2092      7566 00
 2093               	.LASF48:
 2094 0460 5F63 6C6F 		.string	"_close"
 2094      7365 00
 2095               	.LASF85:
 2096 0467 5F72 3438 		.string	"_r48"
 2096      00
 2097               	.LASF87:
 2098 046c 5F6D 6274 		.string	"_mbtowc_state"
 2098      6F77 635F 
 2098      7374 6174 
 2098      6500 
 2099               	.LASF68:
 2100 047a 5F70 3573 		.string	"_p5s"
 2100      00
 2101               	.LASF110:
 2102 047f 6D61 696E 		.string	"main"
 2102      00
 2103               	.LASF31:
 2104 0484 5F5F 746D 		.string	"__tm_mday"
 2104      5F6D 6461 
 2104      7900 
 2105               		.ident	"GCC: (GNU) 11.4.0"


